MPASM 5.73                   ENVGEN8Z209.ASM   5-7-2018  18:11:50         PAGE  1


LOC  OBJECT CODE     LINE SOURCE TEXT
  VALUE

                      00001 ; TODO INSERT CONFIG CODE HERE USING CONFIG BITS GENERATOR
                      00002 ; ozh - note I followed the configurations from another project which was MCC generated
                      00003 ;2018-05-03 ozh - updated port_init with MCC generated pin_manager.  It compiles, but ...
                      00004 ;               looks like I broke the funcdtionality.  Need to debug this new code.
                      00005 ;2018-05-03 ozh - ANSELC configuration issue.  LEDs are digital pins, not analog
                      00006 ;                 code works to flash LED
                      00007 ;2018-05-06 ozh - once I configured SPI Mode 0, the DAC output works with the following:
                      00008 ;       RB7 - SPI Data Out (MOSI)
                      00009 ;       RB6 - SPI Clock
                      00010 ;       RB5 - SPI /CS (for MCP4922)
                      00011 ;       RC2 - SPI Data Out (MISO) - have to allocate the pin, though we don't use it
                      00012 ;       RA0 thru RA7(AN0-AN7) are all faders - analog inputs
                      00013 ;       RB0 thru RB4 are outputs driving the LEDs on the faders (0-4)
                      00014 ;       RC5 thru RC7 are outputs driving the LEDs on the faders (5-7)  
                      00015 ;2018-05-06 ozh - debug outputting to both DAC0 and DAC1  
                      00016 ;2018-05-07 ozh - hand optimize where I can
                      00017 ;2018-05-07 ozh - add EnvGen8 code and integrate with my hardware config and DAC output
                      00018     
                      00019 ; PIC16F18855 Configuration Bit Settings
                      00020 
                      00021 ; Assembly source line config statements
                      00022         LIST R=DEC
                      00023         #include "p16f18855.inc"
                      00001         LIST
                      00002 
                      00003 ;==========================================================================
                      00004 ; Build date : Mar 21 2017
                      00005 ;  MPASM PIC16F18855 processor include
                      00006 ; 
                      00007 ;  (c) Copyright 1999-2017 Microchip Technology, All rights reserved
                      00008 ;==========================================================================
                      00009 
                      06451         LIST
                      00024         Errorlevel -302 
                      00025 
                      00026 ; CONFIG1
                      00027 ; __config 0x3FEC
8007   3FEC           00028  __CONFIG _CONFIG1, _FEXTOSC_OFF & _RSTOSC_HFINT1 & _CLKOUTEN_OFF & _CSWEN_ON & _FCMEN_ON
                      00029 ; CONFIG2
                      00030 ; __config 0x3FFF
8008   3FFF           00031  __CONFIG _CONFIG2, _MCLRE_ON & _PWRTE_OFF & _LPBOREN_OFF & _BOREN_ON & _BORV_LO & _ZCD_OFF & _PPS1WAY_O
                            N & _STVREN_ON
                      00032 ; CONFIG3
                      00033 ; __config 0x3F9F
8009   3F9F           00034  __CONFIG _CONFIG3, _WDTCPS_WDTCPS_31 & _WDTE_OFF & _WDTCWS_WDTCWS_7 & _WDTCCS_SC
                      00035 ; CONFIG4
                      00036 ; __config 0x1FFF
800A   1FFF           00037  __CONFIG _CONFIG4, _WRT_OFF & _SCANE_available & _LVP_OFF
                      00038 ; CONFIG5
                      00039 ; __config 0x3FFF
800B   3FFF           00040  __CONFIG _CONFIG5, _CP_OFF & _CPD_OFF
                      00041 
                      00042 ;------------------------------
MPASM 5.73                   ENVGEN8Z209.ASM   5-7-2018  18:11:50         PAGE  2


LOC  OBJECT CODE     LINE SOURCE TEXT
  VALUE

                      00043 ;       Variables
                      00044 ;------------------------------
                      00045 
                      00046 ; CBLOCK 0x020
                      00047 ;       LOOP_COUNTER_1
                      00048 ;       LOOP_COUNTER_2
                      00049 ;       LEDCOUNTER
                      00050 ; ENDC
                      00051  ; 0x70-0x7F  Common RAM - Special variables available in all banks
                      00052 ; CBLOCK 0x070
                      00053         ; The 12 bit output level
                      00054 ;       OUTPUT_HI
                      00055 ;       OUTPUT_LO
                      00056 ;       DACNUMBER
                      00057 ; ENDC
                      00058  
                      00059 ;-------------------------------------
                      00060 ;       DEFINE STATEMENTS
                      00061 ;-------------------------------------
                      00062 
                      00063 ; Useful bit definitions for clarity    
                      00064 ;#define ZERO           STATUS,Z        ; Zero Flag
                      00065 ;#define CARRY          STATUS,C        ; Carry Flag
                      00066 ;#define BORROW         STATUS,C        ; Borrow is the same as Carry
                      00067 #define NOT_CS          PORTB,5         ; RB5 
                      00068 #define BIT0            b'00000001'
                      00069 #define BIT1            b'00000010'
                      00070 #define BIT2            b'00000100'
                      00071 #define BIT3            b'00001000'
                      00072 #define BIT4            b'00010000'
                      00073 #define BIT5            b'00100000'
                      00074 #define BIT6            b'01000000'
                      00075 #define BIT7            b'10000000'
                      00076 #define STEPSIZE        0x10
                      00077 #define DAC0            0x00
                      00078 #define DAC1            BIT7
                      00079 #define SAVETOW         0x00
                      00080 #define SAVETOF         0x01
                      00081 #define USEACCESSBANK   0x00 ;untested
                      00082 #define USEBSR          0x01 ;untested
                      00083 #define LEDLAST         0x07 ; last LED on pin 7 of port C
                      00084 
                      00085 ;================================================================
                      00086 ; begin orig ENVGEN8 code
                      00087 ;================================================================
                      00088  
                      00089   title  "DUAL ADSR"
                      00090 ;============================================================================
                      00091 ;       ELECTRIC DRUID VOLTAGE CONTROLLED ADSR VERSION 8
                      00092 ;============================================================================
                      00093 ; Legal stuff
                      00094 ; Copyright 2018 Tom Wiltshire for Electric Druid. Some rights reserved.
                      00095 ; This code is shared under a Creative Commons
MPASM 5.73                   ENVGEN8Z209.ASM   5-7-2018  18:11:50         PAGE  3
DUAL ADSR

LOC  OBJECT CODE     LINE SOURCE TEXT
  VALUE

                      00096 ; Attribution-NonCommercial-ShareAlike 4.0 International Licence
                      00097 ; For full details see www.electricdruid.net/legalstuff
                      00098 ; or get in touch at www.electricdruid.net/contact.
                      00099 ;============================================================================
                      00100  
                      00101 ; This program provides a versatile envelope generator on a single chip.
                      00102 ; It is designed as a modern version of the CEM3312 or SSM2056 ICs.
                      00103 ; Analogue output is provided by the 10 bit DAC, via the op-amp buffer.
                      00104 ; Envelope level control is using the DAC's Ref+ input, so no resolution is
                      00105 ; lost at low output amplitude.
                      00106 ;
                      00107 ; Hardware Notes:
                      00108 ;       PIC16F1764 running at 32 MHz using the internal clock
                      00109 ; 1  +5V
                      00110 ; 2  RA5                        : Punch On/Off 0=APDSR, 1=ADSR (fixed 5msec hold stage)
                      00111 ; 3  RA4                        : 0-5V Mode CV
                      00112 ; 4  RA3/~MCLR/Vpp      : Envelope Type (0=Lin/1=Exp)
                      00113 ; 5  RC5                        : Gate Input
                      00114 ; 6  RC4                        : Trigger Input
                      00115 ; 7  RC3                        : 0-5V Time CV
                      00116 ; 8  RC2/OPA1 OUT       : Envelope Output
                      00117 ; 9  RC1/AN5            : 0-5V Release CV
                      00118 ; 10  RC0/AN4           : 0-5V Sustain CV
                      00119 ; 11  RA2/AN2           : 0-5V Decay CV
                      00120 ; 12  RA1/DAC1REF+      : 0-5V Level CV
                      00121 ; 13  RA0/AN0           : 0-5V Attack CV
                      00122 ; 14  Gnd
                      00123 ;
                      00124 ;       1) Change pin assignments in the ENVGEN8 code to match my PIC16F18855 hardware:
                      00125 ;
                      00126 ;       Function    Existing        My New Hardware
                      00127 ;
                      00128 ;       Attack -     RA1/AN0    RA0/ANA0
                      00129 ;
                      00130 ;       Decay -     RA2/AN2    RA1/ANA1
                      00131 ;
                      00132 ;       Sustain -   RC0/AN4    RA2/ANA2
                      00133 ;
                      00134 ;       Release -   RC1/AN5    RA3/ANA3
                      00135 ;
                      00136 ;       Trigger -    RA0            RC0
                      00137 ;
                      00138 ;       Gate -         RA1            RC0 (merge trigger &amp; gate cuz DOTCOM only has Gate)  
                      00139 ; This version started as ENVGEN7B.ASM, the ultimate version of my 16F684
                      00140 ; envelope code, developed between 29th Aug 2006 and 14th May 2008
                      00141 ;
                      00142 ; 28th Jan 2018: ENVGEN8.ASM
                      00143 ; Combined the features of LOOPENV1B and ENVGEN7B into one chip.
                      00144 ; Reconfigured things to take advantage of the 10-bit DAC and it's Vref+ input
                      00145 ; for level control without loss of resolution.
                      00146 ;
                      00147 ; 4 Feb 2018 - finishing off
                      00148 ; Adding fixed-length Punch stage and selector input. Testing Time CV.
MPASM 5.73                   ENVGEN8Z209.ASM   5-7-2018  18:11:50         PAGE  4
DUAL ADSR

LOC  OBJECT CODE     LINE SOURCE TEXT
  VALUE

                      00149 ; Tidying up code.
                      00150 
                      00151 
                      00152 ;       LIST R=DEC
                      00153 ;       INCLUDE <p16f1764.inc>
                      00154 ;       Errorlevel -302
                      00155 
                      00156 ; 16F1764/5 Configuration
                      00157 ; __CONFIG _CONFIG1, _FOSC_INTOSC & _WDTE_OFF & _PWRTE_ON & _MCLRE_OFF & _CP_OFF & _BOREN_OFF & _CLKOUTE
                            N_OFF & _IESO_OFF & _FCMEN_OFF
                      00158 ; __CONFIG _CONFIG2, _WRT_OFF & _PLLEN_ON & _STVREN_ON & _BORV_LO & _LPBOR_OFF & _LVP_OFF
                      00159 
                      00160 ; Assembler has a problem with these: PPS1WAY_OFF & ZCD_OFF
                      00161 ; Weird, since they're in the include file
                      00162 
                      00163 ;------------------------------
                      00164 ;       Variables
                      00165 ;------------------------------
                      00166 
                      00167  CBLOCK 0x020
                      00168         ; The working storage for the interpolation subroutine
  00000020            00169         INPUT_X_HI                                      ; Two inputs, X and Y
  00000021            00170         INPUT_X_LO
  00000022            00171         INPUT_Y_HI
  00000023            00172         INPUT_Y_LO
  00000024            00173         CURVE_OUT_HI                            ; The final, interpolated, curve output
  00000025            00174         CURVE_OUT_LO
                      00175         ; Working storage for the 10x10-bit multiply subroutine
  00000026            00176         MULT_IN_HI
  00000027            00177         MULT_IN_LO                                      ; CURVE_OUT is the other input
  00000028            00178         MULT_OUT_HI
  00000029            00179         MULT_OUT_LO
                      00180         ; The current stage 
  0000002A            00181         STAGE   ; 0=Wait, 1=Attack, 2=Punch, 3=Decay, 4=Sustain, 5=Release, 0=Wait
                      00182 
                      00183         ; The current control voltage(CV) values (8 bit)
  0000002B            00184         ATTACK_CV                                       ; These first four aren't actually used any more
  0000002C            00185         DECAY_CV                                        ; Instead we find a PHASE INC value and use that
  0000002D            00186         SUSTAIN_CV
  0000002E            00187         RELEASE_CV
  0000002F            00188         TIME_CV                                         ; TIME is used directly
  00000030            00189         MODE_CV                                         ; Used to set the LFO_MODE and LOOPING flags
                      00190         ; The debounce counters for GATE and TRIGGER
  00000031            00191         DEBOUNCE_HI
  00000032            00192         DEBOUNCE_LO
  00000033            00193         STATES                                          ; The output state from the debounce
  00000034            00194         CHANGES                                         ; The bits that have altered
                      00195         ; The 24 bit phase accumulator
  00000035            00196         PHASE_HI
  00000036            00197         PHASE_MID
  00000037            00198         PHASE_LO
                      00199         ; The 20 bit frequency increments
                      00200         ; These are stored separately for Attack, Decay, & Release
MPASM 5.73                   ENVGEN8Z209.ASM   5-7-2018  18:11:50         PAGE  5
DUAL ADSR

LOC  OBJECT CODE     LINE SOURCE TEXT
  VALUE

                      00201         ; Note that these increments have been adjusted to reflect
                      00202         ; changes due to TIME_CV, whereas the raw CVs haven't
  00000038            00203         ATTACK_INC_LO
  00000039            00204         ATTACK_INC_MID
  0000003A            00205         ATTACK_INC_HI
  0000003B            00206         PUNCH_INC_LO                            ; Punch stage is not variable
  0000003C            00207         PUNCH_INC_MID
  0000003D            00208         PUNCH_INC_HI
  0000003E            00209         DECAY_INC_LO
  0000003F            00210         DECAY_INC_MID
  00000040            00211         DECAY_INC_HI
  00000041            00212         RELEASE_INC_LO
  00000042            00213         RELEASE_INC_MID
  00000043            00214         RELEASE_INC_HI  
                      00215  ENDC
                      00216 
                      00217 ; 0x70-0x7F  Common RAM - Special variables available in all banks
                      00218  CBLOCK 0x070
  00000070            00219         TEMP                                            ; Useful working storage
  00000071            00220         FLAGS                                           ; See Defines below
                      00221         ; The current A/D channel and value
  00000072            00222         ADC_CHANNEL
  00000073            00223         ADC_VALUE
                      00224         ; The current output level when an Attack or Release starts
  00000074            00225         START_HI
  00000075            00226         START_LO
                      00227         ; The 12 bit output level
  00000076            00228         OUTPUT_HI
  00000077            00229         OUTPUT_LO
  00000078            00230         DACNUMBER
                      00231  ENDC
                      00232 
                      00233 ;-------------------------------------
                      00234 ;       DEFINE STATEMENTS
                      00235 ;-------------------------------------
                      00236 
                      00237 ; Useful bit definitions for clarity    
                      00238 #define ZERO            STATUS,Z        ; Zero Flag
                      00239 #define CARRY           STATUS,C        ; Carry Flag
                      00240 #define BORROW          STATUS,C        ; Borrow is the same as Carry
                      00241 
                      00242 ; Options selection definitions
                      00243 #define USE_ADSR        PORTA, 5        ; Add Punch stage? (0=APSDR, 1=Standard ADSR)
                      00244 #define USE_EXPO        PORTA, 3        ; Linear or exponential envelope?       (1=Expo)
                      00245  
                      00246 ; Flag bit definitions
                      00247 #define LFO_MODE        FLAGS, 0        ; LFO mode (makes env loop endslessly)
                      00248 #define LOOPING         FLAGS, 1        ; Looping (Makes env loop whilst GATE high)
                      00249 
                      00250 ; Input definitions
                      00251 ; #define TRIG_CHANGED  CHANGES, 4      ; RC4 = TRIGGER input
                      00252 ; #define TRIGGER                       STATES, 4
                      00253 ; #define GATE_CHANGED  CHANGES, 5      ; RC = GATE input
MPASM 5.73                   ENVGEN8Z209.ASM   5-7-2018  18:11:50         PAGE  6
DUAL ADSR

LOC  OBJECT CODE     LINE SOURCE TEXT
  VALUE

                      00254 ; #define GATE                  STATES, 5
                      00255 #define TRIG_CHANGED    CHANGES, 0      ; RC0 = TRIGGER input
                      00256 #define TRIGGER                 STATES, 0
                      00257 #define GATE_CHANGED    CHANGES, 0      ; RC0 = GATE input
                      00258 #define GATE                    STATES, 0
                      00259 ; Note I use the debounced variables, not the input directly
                      00260  
                      00261 ; Output DAC assignments, mostly for readability (Bank 11)
                      00262 #define ENV_OUT_LO              DAC1REFL
                      00263 #define ENV_OUT_HI              DAC1REFH
                      00264  
                      00265 
                      00266 ;----------------------------------------------------------------------
                      00267 ; Begin Executable Code Segment
                      00268 ;----------------------------------------------------------------------
                      00269  org     0x000                                  ; Processor reset vector
0000   0000           00270         nop                                                     ; For ICD use
0001   2???           00271         goto    Main                            ; Go to the main program
                      00272 
                      00273 ;------------------------------------------------------------------------------
                      00274 ; Timer 2 Interrupt Service Routine
                      00275 ; This is the sample rate timebase of 31.25KHz, and all necessary calculation
                      00276 ; for the next sample is carried out here.
                      00277 ;------------------------------------------------------------------------------
                      00278  org     0x004                                  ; Interrupt vector location
                      00279 
0004                  00280 InterruptEnter:
                      00281 ; Sample rate timebase at 31.25KHz
0004   0020           00282         movlb   D'0'                            ; Bank 0
0005   1C8D           00283         btfss   PIR1, TMR2IF            ; Check if TMR2 interrupt
0006   2???           00284         goto    InterruptExit
0007   108D           00285         bcf             PIR1, TMR2IF            ; Clear TMR2 interrupt flag
                      00286         
                      00287         ; If we're in LFO mode, we can ignore the GATE and TRIGGER inputs
0008   1871           00288         btfsc   LFO_MODE
0009   2???           00289         goto    GenerateEnvelope
                      00290 
                      00291 ;---------------------------------------------------------
                      00292 ;       Test and debounce the digital inputs
                      00293 ;---------------------------------------------------------
                      00294 ; Do Scott Dattalo's vertical counter debounce (www.dattalo.com)
                      00295 ; This could debounce eight inputs, but I'm using only two:
                      00296 ; RC4 Trigger and RC5 Gate
                      00297         
                      00298 ; Z209 consolidate Gate & Trigger & use RC0 for channel 1
                      00299         
                      00300         ; First, increment the debounce counters
000A   0832           00301         movfw   DEBOUNCE_LO     
000B   06B1           00302         xorwf   DEBOUNCE_HI, f          ; HI+ = HI XOR LO
000C   09B2           00303         comf    DEBOUNCE_LO, f          ; LO+ = ~LO
                      00304         ; See if any changes occured
000D   080E           00305         movfw   PORTC                           ; Get current data from GATE & TRIG inputs
000E   0633           00306         xorwf   STATES, w                       ; Find the changes
MPASM 5.73                   ENVGEN8Z209.ASM   5-7-2018  18:11:50         PAGE  7
DUAL ADSR

LOC  OBJECT CODE     LINE SOURCE TEXT
  VALUE

                      00307         ; Reset counters where no change occured
000F   05B2           00308         andwf   DEBOUNCE_LO, f
0010   05B1           00309         andwf   DEBOUNCE_HI, f
                      00310         ; If there is a pending change and the count has rolled over,
                      00311         ; then the key has been debounced
0011   3AFF           00312         xorlw   D'255'                          ; Invert the changes
0012   0431           00313         iorwf   DEBOUNCE_HI, w          ; If count is 0, both
0013   0432           00314         iorwf   DEBOUNCE_LO, w          ; HI and LO are 0
                      00315         ; Any bit in W that is clear at this point means that the
                      00316         ; input has changed and the count rolled over.
0014   3AFF           00317         xorlw   D'255'
                      00318         ; Now a 1 in W represents a 'switch just changed'
0015   00B4           00319         movwf   CHANGES                         ; Store the changes
                      00320         ; Update the changes to the keyboard state
0016   06B3           00321         xorwf   STATES, f
                      00322         
                      00323 ; Test the GATE and TRIGGER Pins for changes
                      00324 ;--------------------------------------------
                      00325 ; The logic here is straight-forward. If the Trigger goes high, the envelope
                      00326 ; starts an attack. If the Gate goes low, it starts a release.
                      00327         
0017                  00328 TestTrigger:
                      00329         ; Has TRIGGER changed?
0017   1C34           00330         btfss   TRIG_CHANGED
0018   2???           00331         goto    TestGate
                      00332         ; TRIGGER has changed, but has it gone high?
                      00333 ; Z209 - we need to reverse this cuz my hardware inverts the gate input
                      00334 ;       btfss   TRIGGER
0019   1833           00335         btfsc   TRIGGER
001A   2???           00336         goto    TestGate                        ; No, so skip
                      00337         
001B                  00338 StartEnvelope:
                      00339 ; If TRIGGER has gone high, change to ATTACK stage
                      00340         ; Zero the accumulator
001B   01B5           00341         clrf    PHASE_HI
001C   01B6           00342         clrf    PHASE_MID
001D   01B7           00343         clrf    PHASE_LO
                      00344         ; What's the current output level?
001E   0876           00345         movf    OUTPUT_HI, w
001F   00F4           00346         movwf   START_HI
0020   0877           00347         movf    OUTPUT_LO, w
0021   00F5           00348         movwf   START_LO
                      00349         ; Move to ATTACK stage
0022   3001           00350         movlw   D'1'
0023   00AA           00351         movwf   STAGE
0024   2???           00352         goto    GenerateEnvelope        
                      00353 
0025                  00354 TestGate:
                      00355         ; Has GATE changed?
0025   1C34           00356         btfss   GATE_CHANGED
0026   2???           00357         goto    GenerateEnvelope
                      00358         ; GATE has changed, but has it gone low?
                      00359 ; Z209 - we need to reverse this cuz my hardware inverts the gate input
MPASM 5.73                   ENVGEN8Z209.ASM   5-7-2018  18:11:50         PAGE  8
DUAL ADSR

LOC  OBJECT CODE     LINE SOURCE TEXT
  VALUE

                      00360 ;       btfsc   GATE
0027   1C33           00361         btfss   GATE
0028   2???           00362         goto    GenerateEnvelope        ; No, so skip
                      00363 
0029                  00364 EndEnvelope:
                      00365 ; If GATE has gone low, change to RELEASE stage
                      00366         ; Zero the accumulator
0029   01B5           00367         clrf    PHASE_HI
002A   01B6           00368         clrf    PHASE_MID
002B   01B7           00369         clrf    PHASE_LO
                      00370         ; What's the current output level?
002C   0876           00371         movf    OUTPUT_HI, w
002D   00F4           00372         movwf   START_HI
002E   0877           00373         movf    OUTPUT_LO, w
002F   00F5           00374         movwf   START_LO
                      00375         ; Move to RELEASE stage
0030   3005           00376         movlw   D'5'
0031   00AA           00377         movwf   STAGE
                      00378 
                      00379 
0032                  00380 GenerateEnvelope:
                      00381 ; Do we need to increment the phase accumulator?
                      00382 ; If so, what FSR offset should we use?
0032   082A           00383         movf    STAGE, w                        ; Get current stage
0033   000B           00384         brw
0034   2???           00385         goto    Wait                            ; No PHASE_INC required for WAIT
0035   2???           00386         goto    GetAttackOffset
0036   2???           00387         goto    GetPunchOffset  
0037   2???           00388         goto    GetDecayOffset
0038   2???           00389         goto    Sustain                         ; No PHASE_INC required for SUSTAIN
0039   2???           00390         goto    GetReleaseOffset        
                      00391 ;  There are shorter ways to do this, but this way has the advantage that I
                      00392 ; can easily short-circuit the Wait and Sustain stages.
                      00393         
003A                  00394 GetAttackOffset:
003A   3038           00395         movlw   #ATTACK_INC_LO
003B   2???           00396         goto    IncrementPhase
                      00397 
003C                  00398 GetPunchOffset:
003C   303B           00399         movlw   #PUNCH_INC_LO
003D   2???           00400         goto    IncrementPhase
                      00401 
003E                  00402 GetDecayOffset:
003E   303E           00403         movlw   #DECAY_INC_LO
003F   2???           00404         goto    IncrementPhase
                      00405 
0040                  00406 GetReleaseOffset:
0040   3041           00407         movlw   #RELEASE_INC_LO
                      00408         
                      00409 
                      00410 ; Increment the phase accumulator PHASE (24+20 bit addition)
0041                  00411 IncrementPhase:
0041   0086           00412         movwf   FSR1L                           ; Store offset
MPASM 5.73                   ENVGEN8Z209.ASM   5-7-2018  18:11:50         PAGE  9
DUAL ADSR

LOC  OBJECT CODE     LINE SOURCE TEXT
  VALUE

0042   0187           00413         clrf    FSR1H                           ; Set up for Indirect Addressing
                      00414         ; Which set of increments are we using?
0043   0016           00415         moviw   FSR1++                          ; Add FREQ_INC to PHASE
0044   07B7           00416         addwf   PHASE_LO, f
0045   0016           00417         moviw   FSR1++
0046   3DB6           00418         addwfc  PHASE_MID, f
0047   0016           00419         moviw   FSR1++
0048   3DB5           00420         addwfc  PHASE_HI, f
0049   1C03           00421         btfss   CARRY                           ; Has it overflowed?
004A   2???           00422         goto    SelectStage                     ; No, so continue directly
                      00423 
                      00424 ; Accumulator has overflowed, so move to the next stage
004B                  00425 NextStage:
                      00426         ; First zero the accumulator..
004B   01B5           00427         clrf    PHASE_HI
004C   01B6           00428         clrf    PHASE_MID
004D   01B7           00429         clrf    PHASE_LO
                      00430         ; ..then increment the STAGE
004E   0AAA           00431         incf    STAGE, f
                      00432 
004F                  00433 TestPunch:
                      00434 ; Do we use the Punch stage?
004F   1E8C           00435         btfss   USE_ADSR                ; Standard ADSR, so skip Punch
0050   2???           00436         goto    TestLooping
                      00437 
0051                  00438 SkipPunch:
                      00439         ; Are we on the Punch stage?
0051   082A           00440         movf    STAGE, w                ; We're about to examine what STAGE we're on
0052   3A02           00441         xorlw   D'2'
0053   1D03           00442         btfss   ZERO                    ; Is STAGE==2 yet? (PUNCH)
0054   2???           00443         goto    TestLooping
0055   0AAA           00444         incf    STAGE, f                ; Move directly to Decay
0056   2???           00445         goto    SelectStage
                      00446         
0057                  00447 TestLooping:    
                      00448 ; Are we looping? (Could be either Env Looping or LFO mode)
0057   082A           00449         movf    STAGE, w                ; We're about to examine what STAGE we're on
0058   1CF1           00450         btfss   LOOPING
0059   2???           00451         goto    NormalEnvelope
                      00452 
005A                  00453 LoopingEnvelopeOrLFOMode:
                      00454 ; If we're looping, two things are different:
                      00455 ; 1. If STAGE==4, SUSTAIN, we jump straight to STAGE=5, RELEASE 
                      00456 ; 2. If STAGE==6, then we jump back to STAGE=1, ATTACK
005A   3A04           00457         xorlw   D'4'
005B   1D03           00458         btfss   ZERO                    ; Is STAGE==4 yet? (SUSTAIN)
005C   2???           00459         goto    TestLoopingEnd
005D                  00460 SkipSustain:                            ; Yes, so move directly to RELEASE
005D   0AAA           00461         incf    STAGE, f
005E   0876           00462         movf    OUTPUT_HI, w    ; What's the current output level?
005F   00F4           00463         movwf   START_HI
0060   0877           00464         movf    OUTPUT_LO, w
0061   00F5           00465         movwf   START_LO
MPASM 5.73                   ENVGEN8Z209.ASM   5-7-2018  18:11:50         PAGE 10
DUAL ADSR

LOC  OBJECT CODE     LINE SOURCE TEXT
  VALUE

0062   2???           00466         goto    SelectStage
0063                  00467 TestLoopingEnd:
0063   3A02           00468         xorlw   D'2'                    ; Equivalent to "XORLW 4" then "XORLW 6"
0064   1D03           00469         btfss   ZERO                    ; Is STAGE==6 yet? (Envelope finished release)
0065   2???           00470         goto    SelectStage             ; STAGE !=6, so skip the rest
                      00471         ; Envelope has finished release, and we're either in LFO mode,
                      00472         ; or Gated Looping
                      00473         ; We need to determine which, and either go back to the Attack, or finish.
0066   1833           00474         btfsc   GATE                    ; If the Gate is high, it doesn't matter which..
0067   2???           00475         goto    LoopToAttack    ; ..since we go back to the Attack in either case
                      00476         ; GATE is Low, so which should it be?
0068   1871           00477         btfsc   LFO_MODE                ; Are we in LFO mode?
0069   2???           00478         goto    LoopToAttack    ; If it's LFO Mode we go back to Attack
                      00479         ; Gated Looping mode, Release has finished
006A   01AA           00480         clrf    STAGE                   ; Reset STAGE to zero, WAIT
006B   2???           00481         goto    SelectStage
                      00482 
006C                  00483 LoopToAttack:                           ; Yes, so reset it to ATTACK
006C   3001           00484         movlw   D'1'
006D   00AA           00485         movwf   STAGE
006E   0876           00486         movf    OUTPUT_HI, w    ; What's the current output level?
006F   00F4           00487         movwf   START_HI
0070   0877           00488         movf    OUTPUT_LO, w
0071   00F5           00489         movwf   START_LO
0072   2???           00490         goto    SelectStage
                      00491 
0073                  00492 NormalEnvelope:
0073   3A06           00493         xorlw   D'6'
0074   1903           00494         btfsc   ZERO                    ; Is STAGE==6 yet?
0075   01AA           00495         clrf    STAGE                   ; Yes, so reset it to zero, WAIT
                      00496 
                      00497 
                      00498 ; We need to produce different output values depending on which stage we're at
0076                  00499 SelectStage:
0076   082A           00500         movf    STAGE, w                        ; Get current stage
0077   000B           00501         brw
0078                  00502 SelectStageBranch:
0078   2???           00503         goto    Wait                            ; (Only gets called from here after 'NextStage')
0079   2???           00504         goto    Attack
007A   2???           00505         goto    Punch   
007B   2???           00506         goto    Decay
007C   2???           00507         goto    Sustain                         ; (Only gets called from here after 'NextStage')
007D   2???           00508         goto    Release
                      00509 
007E                  00510 Wait:
                      00511         ; Do nothing. GATE is low, and release stage has finished
007E   01F6           00512         clrf    OUTPUT_HI                       ; Ensure we output zero when waiting
007F   01F7           00513         clrf    OUTPUT_LO
0080   2???           00514         goto    DACOutput
                      00515 
0081                  00516 Attack:
                      00517         ; Attack needs scaling by 1-START level,
                      00518         ; then needs START level adding to it
MPASM 5.73                   ENVGEN8Z209.ASM   5-7-2018  18:11:50         PAGE 11
DUAL ADSR

LOC  OBJECT CODE     LINE SOURCE TEXT
  VALUE

0081   0974           00519         comf    START_HI, w
0082   00A6           00520         movwf   MULT_IN_HI
0083   0975           00521         comf    START_LO, w
0084   00A7           00522         movwf   MULT_IN_LO
                      00523         ; Set up CURVE_OUT with the linear value (in case)
0085   0835           00524         movf    PHASE_HI, w
0086   00A4           00525         movwf   CURVE_OUT_HI
0087   0836           00526         movf    PHASE_MID, w
0088   00A5           00527         movwf   CURVE_OUT_LO
                      00528         ; Do we use the linear value directly, or do an expo lookup?
0089   1D8C           00529         btfss   USE_EXPO
008A   2???           00530         goto    AttackScaling
                      00531 
008B                  00532 ExponentialAttack:
                      00533         ; Set up the exponential lookup index
008B   0187           00534         clrf    FSR1H
008C   3535           00535         lslf    PHASE_HI, w                     ; Shift it up for 16-bit table
008D   0086           00536         movwf   FSR1L
008E   0D87           00537         rlf             FSR1H, f
                      00538         ; Add the table base address
008F   30??           00539         movlw   LOW AttackCurve         ; Get the table base address
0090   0786           00540         addwf   FSR1L, f                        ; Add it to the index
0091   30??           00541         movlw   HIGH AttackCurve
0092   3D87           00542         addwfc  FSR1H, f
                      00543         ; Get the required value for an exponential Attack curve
0093   2???           00544         call    LookupAndInterp         ; Returns values in CURVE_OUT
                      00545 
0094                  00546 AttackScaling:
0094   2???           00547         call    Multiply10x10           ; Do the scaling
                      00548         ; Add START level
0095   0875           00549         movf    START_LO, w
0096   0729           00550         addwf   MULT_OUT_LO, w
0097   00F7           00551         movwf   OUTPUT_LO
0098   0874           00552         movf    START_HI, w
0099   3D28           00553         addwfc  MULT_OUT_HI, w
009A   00F6           00554         movwf   OUTPUT_HI
009B   2???           00555         goto    DACOutput
                      00556 
                      00557         
009C                  00558 Punch:
                      00559         ; This is a short fixed Hold stage
009C   30FF           00560         movlw   D'255'
009D   00F6           00561         movwf   OUTPUT_HI                       ; Ensure we output high
009E   00F7           00562         movwf   OUTPUT_LO
009F   2???           00563         goto    DACOutput
                      00564 
                      00565 
00A0                  00566 Decay:
                      00567         ; Decay needs scaling by 1-SUSTAIN and then inverting
00A0   092D           00568         comf    SUSTAIN_CV, w
00A1   00A6           00569         movwf   MULT_IN_HI
00A2   00A7           00570         movwf   MULT_IN_LO
                      00571         ; Set up CURVE_OUT with the linear value (in case)
MPASM 5.73                   ENVGEN8Z209.ASM   5-7-2018  18:11:50         PAGE 12
DUAL ADSR

LOC  OBJECT CODE     LINE SOURCE TEXT
  VALUE

00A3   0835           00572         movf    PHASE_HI, w
00A4   00A4           00573         movwf   CURVE_OUT_HI
00A5   0836           00574         movf    PHASE_MID, w
00A6   00A5           00575         movwf   CURVE_OUT_LO
                      00576         ; Do we use the linear value directly, or do an expo lookup?
00A7   1D8C           00577         btfss   USE_EXPO
00A8   2???           00578         goto    DecayScaling
                      00579 
00A9                  00580 ExponentialDecay:
                      00581         ; Set up the exponential lookup index
00A9   0187           00582         clrf    FSR1H
00AA   3535           00583         lslf    PHASE_HI, w                     ; Shift it up for 16-bit table
00AB   0086           00584         movwf   FSR1L
00AC   0D87           00585         rlf             FSR1H, f
                      00586         ; Add the table base address
00AD   30??           00587         movlw   LOW DecayCurve          ; Get the table base address
00AE   0786           00588         addwf   FSR1L, f                        ; Add it to the index
00AF   30??           00589         movlw   HIGH DecayCurve
00B0   3D87           00590         addwfc  FSR1H, f
                      00591         ; Get the required value for an exponential Decay curve
00B1   2???           00592         call    LookupAndInterp         ; Returns values in CURVE_OUT
                      00593 
00B2                  00594 DecayScaling:
00B2   2???           00595         call    Multiply10x10           ; Do the scaling
                      00596         ; Invert the result
00B3   0928           00597         comf    MULT_OUT_HI, w
00B4   00F6           00598         movwf   OUTPUT_HI
00B5   0929           00599         comf    MULT_OUT_LO, w
00B6   00F7           00600         movwf   OUTPUT_LO
00B7   2???           00601         goto    DACOutput
                      00602 
                      00603 
00B8                  00604 Sustain:
                      00605         ; Do nothing. Gate is high, and decay stage has finished
00B8   082D           00606         movf    SUSTAIN_CV, w           ; Ensure that we output the sustain level
00B9   00F6           00607         movwf   OUTPUT_HI
00BA   00F7           00608         movwf   OUTPUT_LO
00BB   2???           00609         goto    DACOutput
                      00610 
                      00611 
00BC                  00612 Release:
                      00613         ; Release needs scaling by START level, then
                      00614         ; 1-START level adding, then inverting
00BC   0874           00615         movf    START_HI, w
00BD   00A6           00616         movwf   MULT_IN_HI
00BE   0875           00617         movf    START_LO, w
00BF   00A7           00618         movwf   MULT_IN_LO
                      00619         ; Set up CURVE_OUT with the linear value (in case)
00C0   0835           00620         movf    PHASE_HI, w
00C1   00A4           00621         movwf   CURVE_OUT_HI
00C2   0836           00622         movf    PHASE_MID, w
00C3   00A5           00623         movwf   CURVE_OUT_LO
                      00624         ; Do we use the linear value directly, or do an expo lookup?
MPASM 5.73                   ENVGEN8Z209.ASM   5-7-2018  18:11:50         PAGE 13
DUAL ADSR

LOC  OBJECT CODE     LINE SOURCE TEXT
  VALUE

00C4   1D8C           00625         btfss   USE_EXPO
00C5   2???           00626         goto    ReleaseScaling
                      00627 
00C6                  00628 ExponentialRelease:
                      00629         ; Set up the exponential lookup index
00C6   0187           00630         clrf    FSR1H
00C7   3535           00631         lslf    PHASE_HI, w                     ; Shift it up for 16-bit table
00C8   0086           00632         movwf   FSR1L
00C9   0D87           00633         rlf             FSR1H, f
                      00634         ; Add the table base address
00CA   30??           00635         movlw   LOW DecayCurve          ; Get the table base address
00CB   0786           00636         addwf   FSR1L, f                        ; Add it to the index
00CC   30??           00637         movlw   HIGH DecayCurve
00CD   3D87           00638         addwfc  FSR1H, f
                      00639         ; Get the required value for an exponential Decay curve
00CE   2???           00640         call    LookupAndInterp
                      00641 
00CF                  00642 ReleaseScaling:
00CF   2???           00643         call    Multiply10x10           ; Do the scaling
                      00644         ; Add 1-START level
00D0   0975           00645         comf    START_LO, w
00D1   0729           00646         addwf   MULT_OUT_LO, w
00D2   00F7           00647         movwf   OUTPUT_LO
00D3   0974           00648         comf    START_HI, w
00D4   3D28           00649         addwfc  MULT_OUT_HI, w
00D5   00F6           00650         movwf   OUTPUT_HI
                      00651         ; Invert the result
00D6   09F6           00652         comf    OUTPUT_HI,f
00D7   09F7           00653         comf    OUTPUT_LO,f
                      00654 
                      00655 ; Set DAC Output
                      00656 ;---------------------------------------
00D8                  00657 DACOutput:
                      00658         ; Load 10-bit DAC
                      00659 ;       movlb   D'11'                           ; All DACs are in Bank 11
                      00660 ;       movf    OUTPUT_LO, w            ; Move output data to DAC1
                      00661 ;       movwf   DAC1REFL
                      00662 ;       movf    OUTPUT_HI, w
                      00663 ;       movwf   DAC1REFH        
                      00664 ;       movlw   B'00000001'
                      00665 ;       movwf   DACLD                           ; Load DAC1 alone
                      00666 
                      00667 ;       output to MCP4922, not the internal DAC
00D8   3000           00668         movlw DAC0      ; TODO: change this hardcoded DAC0 to a variable
                      00669         ; pass in the DAC # (in bit 7) via 
00D9   3830           00670         iorlw 0x30          ;bit 6=0 (n/a); bit 5=1(GAin x1); bit 4=1 (/SHDN)
00DA   00F8           00671         movwf DACNUMBER     
                      00672 
                      00673         ; output the OUTPUT_HI and OUTPUT_LO to the DAC# (0 or 1) specified in W
00DB   0020           00674         movlb 0         ; PORTB
00DC   128D           00675         bcf   NOT_CS    ; Take ~CS Low
00DD   0000           00676         nop             ; settling time
                      00677         
MPASM 5.73                   ENVGEN8Z209.ASM   5-7-2018  18:11:50         PAGE 14
DUAL ADSR

LOC  OBJECT CODE     LINE SOURCE TEXT
  VALUE

00DE   0023           00678         movlb 3
                      00679 ;    // Clear the Write Collision flag, to allow writing
00DF   139A           00680         bcf SSP2CON1,WCOL   ;    SSP2CON1bits.WCOL = 0;
                      00681         ; not sure (if/why) we need this
00E0   0816           00682         movf  SSP2BUF,w  ; Do a dummy read to clear flags
                      00683         
                      00684         ; first send high byte plus commands/configuration
00E1   0876           00685         movf OUTPUT_HI,w
00E2   390F           00686         andlw 0x0F      ; we will only want least significant4 bits
                      00687         ;for DAC0 or DAC1 - dac # (bit 7) 
                      00688         ;                 bit 15 A/B: DACA or DACB Selection bit
00E3   0478           00689         iorwf DACNUMBER,0 ; clr or set bit based on DAC.  0=save into W 
                      00690         ; this works, but let's do all of this at the beginning
                      00691 ;       ;               ; 0 = unbuffered - bit 14  VREF Input Buffer Control bit
                      00692 ;       iorlw BIT5      ; set gain of 1 - bit 13 Output Gain Selection bit
                      00693 ;       iorlw BIT4      ; 0x10 - bit 12 SHDN: Output Shutdown Control bit
                      00694         
                      00695         ; now W has the commands plus data bits 12-9
00E4   0096           00696         movwf SSP2BUF   ; load the buffer
00E5                  00697 WriteByteHiWait:
00E5   1C19           00698         btfss   SSP2STAT, BF            ; Wait while it sends
00E6   2???           00699         goto    WriteByteHiWait 
                      00700 
                      00701         ; not sure (if/why) we need this
00E7   0816           00702         movf  SSP2BUF,w  ; Do a dummy read to clear flags
                      00703         ; second send the low byte
00E8   0877           00704         movf OUTPUT_LO,w
00E9   0096           00705         movwf SSP2BUF   ; load the buffer
00EA                  00706 WriteByteLoWait:
00EA   1C19           00707         btfss   SSP2STAT, BF            ; Wait while it sends
00EB   2???           00708         goto    WriteByteLoWait 
                      00709         
                      00710         ; end of write
00EC   0020           00711         movlb 0         ; PORTB
00ED   168D           00712         bsf   NOT_CS    ; Take ~CS high
                      00713         ; don't need this here
                      00714 ;       nop             ; settling time
                      00715 ;       return  
                      00716 ;----------------------------------------
00EE                  00717 InterruptExit:
00EE   0009           00718         retfie
                      00719 
                      00720 ;------------------------------------------------------
                      00721 ;       10 bit x 10 bit Multiply Subroutine
                      00722 ; This is used by the Attack, Decay and Release stages to
                      00723 ; scale their output.
                      00724 ; The value in CURVE_OUT is multipled by MULT_IN.
                      00725 ; Both are 10-bit, left-aligned.
                      00726 ; 16 bit Output is in MULT_OUT_HI/LO
                      00727 ;------------------------------------------------------
00EF                  00728 Multiply10x10:
                      00729         ; Clear the output
00EF   01A8           00730         clrf    MULT_OUT_HI
MPASM 5.73                   ENVGEN8Z209.ASM   5-7-2018  18:11:50         PAGE 15
DUAL ADSR

LOC  OBJECT CODE     LINE SOURCE TEXT
  VALUE

00F0   01A9           00731         clrf    MULT_OUT_LO
                      00732 
00F1                  00733 MultBit0:
00F1   1003           00734         clrc                                            ; Only important if we skip
00F2   1F27           00735         btfss   MULT_IN_LO, 6           ; Do the test
00F3   2???           00736         goto    MultBit1                        ; Skip if bit not set
                      00737 
00F4   0825           00738         movf    CURVE_OUT_LO, w         ; Add to output if bit set
00F5   07A9           00739         addwf   MULT_OUT_LO, f
00F6   0824           00740         movf    CURVE_OUT_HI, w
00F7   3DA8           00741         addwfc  MULT_OUT_HI, f
                      00742 
00F8                  00743 MultBit1:
00F8   0CA8           00744         rrf             MULT_OUT_HI, f          ; Shift down
00F9   0CA9           00745         rrf             MULT_OUT_LO, f
                      00746 
00FA   1003           00747         clrc                                            ; Only important if we skip
00FB   1FA7           00748         btfss   MULT_IN_LO, 7           ; Do test
00FC   2???           00749         goto    MultBit2                        ; Skip if bit not set
                      00750 
00FD   0825           00751         movf    CURVE_OUT_LO, w         ; Add to output if bit set
00FE   07A9           00752         addwf   MULT_OUT_LO, f
00FF   0824           00753         movf    CURVE_OUT_HI, w
0100   3DA8           00754         addwfc  MULT_OUT_HI, f
                      00755 
0101                  00756 MultBit2:
0101   0CA8           00757         rrf             MULT_OUT_HI, f          ; etc..
0102   0CA9           00758         rrf             MULT_OUT_LO, f
                      00759 
0103   1003           00760         clrc
0104   1C26           00761         btfss   MULT_IN_HI, 0
0105   2???           00762         goto    MultBit3
                      00763 
0106   0825           00764         movf    CURVE_OUT_LO, w
0107   07A9           00765         addwf   MULT_OUT_LO, f
0108   0824           00766         movf    CURVE_OUT_HI, w
0109   3DA8           00767         addwfc  MULT_OUT_HI, f
                      00768 
010A                  00769 MultBit3:
010A   0CA8           00770         rrf             MULT_OUT_HI, f
010B   0CA9           00771         rrf             MULT_OUT_LO, f
                      00772 
010C   1003           00773         clrc
010D   1CA6           00774         btfss   MULT_IN_HI, 1
010E   2???           00775         goto    MultBit4
                      00776 
010F   0825           00777         movf    CURVE_OUT_LO, w
0110   07A9           00778         addwf   MULT_OUT_LO, f
0111   0824           00779         movf    CURVE_OUT_HI, w
0112   3DA8           00780         addwfc  MULT_OUT_HI, f
                      00781 
0113                  00782 MultBit4:
0113   0CA8           00783         rrf             MULT_OUT_HI, f
MPASM 5.73                   ENVGEN8Z209.ASM   5-7-2018  18:11:50         PAGE 16
DUAL ADSR

LOC  OBJECT CODE     LINE SOURCE TEXT
  VALUE

0114   0CA9           00784         rrf             MULT_OUT_LO, f
                      00785 
0115   1003           00786         clrc
0116   1D26           00787         btfss   MULT_IN_HI, 2
0117   2???           00788         goto    MultBit5
                      00789 
0118   0825           00790         movf    CURVE_OUT_LO, w
0119   07A9           00791         addwf   MULT_OUT_LO, f
011A   0824           00792         movf    CURVE_OUT_HI, w
011B   3DA8           00793         addwfc  MULT_OUT_HI, f
                      00794 
011C                  00795 MultBit5:
011C   0CA8           00796         rrf             MULT_OUT_HI, f
011D   0CA9           00797         rrf             MULT_OUT_LO, f
                      00798 
011E   1003           00799         clrc
011F   1DA6           00800         btfss   MULT_IN_HI, 3
0120   2???           00801         goto    MultBit6
                      00802 
0121   0825           00803         movf    CURVE_OUT_LO, w
0122   07A9           00804         addwf   MULT_OUT_LO, f
0123   0824           00805         movf    CURVE_OUT_HI, w
0124   3DA8           00806         addwfc  MULT_OUT_HI, f
                      00807 
0125                  00808 MultBit6:
0125   0CA8           00809         rrf             MULT_OUT_HI, f
0126   0CA9           00810         rrf             MULT_OUT_LO, f
                      00811 
0127   1003           00812         clrc
0128   1E26           00813         btfss   MULT_IN_HI, 4
0129   2???           00814         goto    MultBit7
                      00815 
012A   0825           00816         movf    CURVE_OUT_LO, w
012B   07A9           00817         addwf   MULT_OUT_LO, f
012C   0824           00818         movf    CURVE_OUT_HI, w
012D   3DA8           00819         addwfc  MULT_OUT_HI, f
                      00820 
012E                  00821 MultBit7:
012E   0CA8           00822         rrf             MULT_OUT_HI, f
012F   0CA9           00823         rrf             MULT_OUT_LO, f
                      00824 
0130   1003           00825         clrc
0131   1EA6           00826         btfss   MULT_IN_HI, 5
0132   2???           00827         goto    MultBit8
                      00828 
0133   0825           00829         movf    CURVE_OUT_LO, w
0134   07A9           00830         addwf   MULT_OUT_LO, f
0135   0824           00831         movf    CURVE_OUT_HI, w
0136   3DA8           00832         addwfc  MULT_OUT_HI, f
                      00833 
0137                  00834 MultBit8:
0137   0CA8           00835         rrf             MULT_OUT_HI, f
0138   0CA9           00836         rrf             MULT_OUT_LO, f
MPASM 5.73                   ENVGEN8Z209.ASM   5-7-2018  18:11:50         PAGE 17
DUAL ADSR

LOC  OBJECT CODE     LINE SOURCE TEXT
  VALUE

                      00837 
0139   1003           00838         clrc
013A   1F26           00839         btfss   MULT_IN_HI, 6
013B   2???           00840         goto    MultBit9
                      00841 
013C   0825           00842         movf    CURVE_OUT_LO, w
013D   07A9           00843         addwf   MULT_OUT_LO, f
013E   0824           00844         movf    CURVE_OUT_HI, w
013F   3DA8           00845         addwfc  MULT_OUT_HI, f
                      00846 
0140                  00847 MultBit9:
0140   0CA8           00848         rrf             MULT_OUT_HI, f
0141   0CA9           00849         rrf             MULT_OUT_LO, f
                      00850 
0142   1003           00851         clrc
0143   1FA6           00852         btfss   MULT_IN_HI, 7
0144   2???           00853         goto    MultEnd
                      00854 
0145   0825           00855         movf    CURVE_OUT_LO, w
0146   07A9           00856         addwf   MULT_OUT_LO, f
0147   0824           00857         movf    CURVE_OUT_HI, w
0148   3DA8           00858         addwfc  MULT_OUT_HI, f
                      00859 
0149                  00860 MultEnd:
                      00861         ; Do the last down shift and we're done!
0149   0CA8           00862         rrf             MULT_OUT_HI, f
014A   0CA9           00863         rrf             MULT_OUT_LO, f
                      00864 ; Note:
                      00865 ; The original 8x8 routine was 66 instructions.
                      00866 ; This is 82, so it's only 16 instructions worse. Actual runtime
                      00867 ; is variable depending on how many bits of MULT_IN are set, but average
                      00868 ; time will be 62-odd instructions. Not half bad!
014B   0008           00869         return
                      00870 
                      00871 
                      00872 ;------------------------------------------------------
                      00873 ;       Linear Interpolation Subroutine
                      00874 ; This is used by the Attack, Decay, and Release stages.
                      00875 ; The routine expects to be given an FSR pointer from where it can read
                      00876 ; two 16-bit values to interpolate between: INPUT_X and INPUT_Y
                      00877 ; It also assumes that PHASE_MID is to be used as interpolation index.
                      00878 ; The interpolation result goes into CURVE_OUT.
                      00879 ; Since I only want a 10-bit result, we stop the calculation quite early,
                      00880 ; only doing a 3-bit interp (one extra bit for good measure).
                      00881 ;------------------------------------------------------
014C                  00882 LookupAndInterp:
                      00883         ; Get the two samples
014C   0016           00884         moviw   FSR1++
014D   00A1           00885         movwf   INPUT_X_LO                      ; Fetch Input X
014E   00A5           00886         movwf   CURVE_OUT_LO            ; We start with Input X
014F   0016           00887         moviw   FSR1++
0150   00A0           00888         movwf   INPUT_X_HI
0151   00A4           00889         movwf   CURVE_OUT_HI            ; and here too
MPASM 5.73                   ENVGEN8Z209.ASM   5-7-2018  18:11:50         PAGE 18
DUAL ADSR

LOC  OBJECT CODE     LINE SOURCE TEXT
  VALUE

0152   0016           00890         moviw   FSR1++
0153   00A3           00891         movwf   INPUT_Y_LO                      ; Fetch Input Y
0154   0016           00892         moviw   FSR1++
0155   00A2           00893         movwf   INPUT_Y_HI
                      00894 
                      00895 ; Do the Interpolation between the two samples
                      00896 
                      00897         ; Interp bit 0
0156   0821           00898         movf    INPUT_X_LO, w           ; Assume Input X
0157   1AB6           00899         btfsc   PHASE_MID, 5
0158   0823           00900         movf    INPUT_Y_LO, w           ; Use Input Y if set
0159   07A5           00901         addwf   CURVE_OUT_LO, f         ; Add selected byte to output
015A   0820           00902         movf    INPUT_X_HI, w           ; Do same again for high byte
015B   1AB6           00903         btfsc   PHASE_MID, 5
015C   0822           00904         movf    INPUT_Y_HI, w
015D   3DA4           00905         addwfc  CURVE_OUT_HI, f
015E   0CA4           00906         rrf             CURVE_OUT_HI, f         ; Shift down
015F   0CA5           00907         rrf             CURVE_OUT_LO, f
                      00908         ; Interp bit 1
0160   0821           00909         movf    INPUT_X_LO, w           ; Assume Input X
0161   1B36           00910         btfsc   PHASE_MID, 6
0162   0823           00911         movf    INPUT_Y_LO, w           ; Use Input Y if set
0163   07A5           00912         addwf   CURVE_OUT_LO, f         ; Add selected byte to output
0164   0820           00913         movf    INPUT_X_HI, w           ; Do same again for high byte
0165   1B36           00914         btfsc   PHASE_MID, 6
0166   0822           00915         movf    INPUT_Y_HI, w
0167   3DA4           00916         addwfc  CURVE_OUT_HI, f
0168   0CA4           00917         rrf             CURVE_OUT_HI, f         ; Shift down
0169   0CA5           00918         rrf             CURVE_OUT_LO, f
                      00919         ; Interp bit 2
016A   0821           00920         movf    INPUT_X_LO, w           ; Assume Input X
016B   1BB6           00921         btfsc   PHASE_MID, 7
016C   0823           00922         movf    INPUT_Y_LO, w           ; Use Input Y if set
016D   07A5           00923         addwf   CURVE_OUT_LO, f         ; Add selected byte to output
016E   0820           00924         movf    INPUT_X_HI, w           ; Do same again for high byte
016F   1BB6           00925         btfsc   PHASE_MID, 7
0170   0822           00926         movf    INPUT_Y_HI, w
0171   3DA4           00927         addwfc  CURVE_OUT_HI, f
0172   0CA4           00928         rrf             CURVE_OUT_HI, f         ; Shift down
0173   0CA5           00929         rrf             CURVE_OUT_LO, f
0174   0008           00930         return
                      00931 
                      00932 
                      00933 ;----------------------------------------
                      00934 ;       Analogue to Digital conversion subroutine
                      00935 ; This is used by the main code loop
                      00936 ;----------------------------------------
0175                  00937 DoADConversion:
0175   0021           00938         movlb   D'1'                            ; Bank 1
0176   0093           00939         movwf   ADCON0
                      00940 
                      00941         ; Short delay whilst the channel settles
0177   3032           00942         movlw   D'50'
MPASM 5.73                   ENVGEN8Z209.ASM   5-7-2018  18:11:50         PAGE 19
DUAL ADSR

LOC  OBJECT CODE     LINE SOURCE TEXT
  VALUE

0178   00F0           00943         movwf   TEMP
0179   0BF0           00944         decfsz  TEMP, f
017A   3???           00945         bra             $-1
                      00946 
                      00947         ; Start the conversion
017B   1413           00948         bsf             ADCON0, GO_NOT_DONE
                      00949         ; Wait for it to finish
017C   1813           00950         btfsc   ADCON0, GO_NOT_DONE     ; Is it done?
017D   3???           00951         bra             $-1
                      00952 
                      00953         ;  Read the ADC Value and store it
017E   080D           00954         movf    ADRESH, w
017F   00F3           00955         movwf   ADC_VALUE
0180   0020           00956         movlb   D'0'                            ; Bank 0
0181   0008           00957         return
                      00958 
                      00959 ;----------------------------------------
                      00960 ;       The main program
                      00961 ; This reads the A/D channels and provides
                      00962 ; values for the DDS
                      00963 ;----------------------------------------
0182                  00964 Main:
0182   0021           00965         movlb   D'1'                            ; Bank 1
                      00966 
0183   2???           00967         call Init_Osc
0184   2???           00968         call Init_Ports
                      00969         
                      00970 ;       ; Set up the clock for 32MHz internal
                      00971 ;       movlw   B'11110000'                     ; 8MHz internal, x4 PLL
                      00972 ;       movwf   OSCCON
                      00973 ;
                      00974 ;       ; Set up the IO Ports
                      00975 ;       movlw   b'111111'                       ; All inputs RA0:RA5
                      00976 ;       movwf   TRISA
                      00977 ;       movlw   b'111011'                       ; RC2 Output, all others inputs
                      00978 ;       movwf   TRISC
                      00979 ;
                      00980 ; TODO: review this setup
                      00981 ;
                      00982         ; Set up the interrupts
0185   178B           00983         bsf             INTCON, GIE                     ; Enable interrupts
0186   170B           00984         bsf             INTCON, PEIE            ; Enable peripheral interrupts
                      00985 ;       bsf             INTCON, IOCIE           ; Enable interrupt-on-change
0187   1497           00986         bsf             PIE1, TMR2IE            ; Enable the output sample rate interrupt
                      00987         
                      00988 ; Set up Timer2 as sample rate timebase
0188   0020           00989         movlb   D'0'                            ; Bank 0                
0189   3001           00990         movlw   B'00000001'                     
018A   0090           00991         movwf   T2CLKCON                        ; Fosc/4 = 8MHz clock for timer
018B   3030           00992         movlw   B'00110000'                     ; Prescale /8 = 1MHz, Postscale /1, Tmr Off
018C   008E           00993         movwf   T2CON                                   
018D   301F           00994         movlw   0x1F                            ; Set up Timer2 period register (/32)
018E   008D           00995         movwf   T2PR                            ; Interrupts at 1MHz/32 = 31.25KHz
MPASM 5.73                   ENVGEN8Z209.ASM   5-7-2018  18:11:50         PAGE 20
DUAL ADSR

LOC  OBJECT CODE     LINE SOURCE TEXT
  VALUE

                      00996 
                      00997 ; see Init_Ports for this configuration for Z209
                      00998 ; Set up Analog-to-digital convertor and ADC inputs
                      00999 ;       movlb   D'3'                            ; Bank 3
                      01000 ;       movlw   B'00010111'                     ; 4 Analog inputs on RA0-RA2, RA4
                      01001 ;       movwf   ANSELA
                      01002 ;       movlw   B'00001011'                     ; 3 Analog inputs on RC0, RC1, RC3
                      01003 ;       movwf   ANSELC
                      01004 ; TODO: review this setup
018F   0021           01005         movlb   D'1'                            ; Bank 1
0190   3001           01006         movlw   B'00000001'                     ; AN0, ADC on
0191   0093           01007         movwf   ADCON0  
0192   3060           01008         movlw   B'01100000'                     ; Left-justified, Fosc/64, Vss to Vdd range.
0193   0094           01009         movwf   ADCON1
                      01010 ; not using internal DAC!       
                      01011 ; Set up DAC1 (10-bit) for Envelope Output
                      01012 ;       movlb   D'11'                           ; All DACs are in Bank 11
                      01013 ;       movlw   B'11000100'                     ; Enabled, L-justified, No output, Vref+, Vss
                      01014 ;;      movlw   B'11000000'                     ; Enabled, L-justified, No output, Vdd, Vss
                      01015 ;       movwf   DAC1CON0                        ; (Note that we use Vref+ as Level CV)
                      01016 ;       clrf    DAC1REFH                        ; Zero the value
                      01017 ;       clrf    DAC1REFL
                      01018 ;       
                      01019 ;; Set up op-amp to buffer DAC output
                      01020 ;       movlb   D'10'                           ; Bank 10
                      01021 ;       movlw   B'00000000'                     ; -in = default (we set unity gain in a mo)
                      01022 ;       movwf   OPA1NCHS
                      01023 ;       movlw   B'00000010'                     ; +in = DAC1
                      01024 ;       movwf   OPA1PCHS
                      01025 ;       movlw   B'10010000'                     ; Enabled, Unity Gain, no override
                      01026 ;       movwf   OPA1CON
                      01027 ;       movlw   B'00000000'                     ; Override selection (default)
                      01028 ;       movwf   OPA1ORS
                      01029 
                      01030 ; not using these inputs at this time.  see Init_Ports
                      01031 ;; Set up weak pull-ups on USE_ADSR and USE_EXPO inputs
                      01032 ;       movlb   D'1'                            ; Bank 1
                      01033 ;       movlw   B'01111111'
                      01034 ;       movwf   OPTION_REG                      ; Weak pull-ups enabled
                      01035 ;       movlb   D'4'                            ; Bank 4
                      01036 ;       movlw   B'000000'                       ; No Pull-ups on Port C
                      01037 ;       movwf   WPUC
                      01038 ;       movlw   B'101000'                       ; Pull-ups on RA3 and RA5
                      01039 ;       movwf   WPUA
                      01040 
                      01041         
                      01042 ; Set up initial values of the variables
                      01043 ;-----------------------------------------
0194   0020           01044         movlb   D'0'                                    ; Bank 0
                      01045         
                      01046         ; Set up both indirection pointers for Bank0
0195   0185           01047         clrf    FSR0H
0196   0187           01048         clrf    FSR1H
MPASM 5.73                   ENVGEN8Z209.ASM   5-7-2018  18:11:50         PAGE 21
DUAL ADSR

LOC  OBJECT CODE     LINE SOURCE TEXT
  VALUE

                      01049 
                      01050         ; Set up initial values of the variables
0197   01AB           01051         clrf    ATTACK_CV                       ; Default to minimum time of 1mS
0198   01AC           01052         clrf    DECAY_CV
0199   01AD           01053         clrf    SUSTAIN_CV
019A   01AE           01054         clrf    RELEASE_CV
                      01055 ; TODO: remove this once ADC is working
                      01056 ;       set up a default percussive envelope for Z209
019B   307F           01057         movlw   0x7f                            
019C   00AC           01058         movwf   DECAY_CV
019D   307F           01059         movlw   0x7f
019E   00AD           01060         movwf   SUSTAIN_CV
019F   303F           01061         movlw   0x3f
01A0   00AE           01062         movwf   RELEASE_CV
                      01063 ; end percussive preset
                      01064         
01A1   01AF           01065         clrf    TIME_CV                         ; Default to no time modulation
01A2   01B0           01066         clrf    MODE_CV                         ; Default to standard ADSR, no looping
01A3   01AA           01067         clrf    STAGE
                      01068         ; Clear the Phase Accumulator
01A4   01B7           01069         clrf    PHASE_LO
01A5   01B6           01070         clrf    PHASE_MID
01A6   01B5           01071         clrf    PHASE_HI
                      01072         ; Clear the increments too
01A7   01B8           01073         clrf    ATTACK_INC_LO
01A8   01B9           01074         clrf    ATTACK_INC_MID
01A9   01BA           01075         clrf    ATTACK_INC_HI
01AA   01BE           01076         clrf    DECAY_INC_LO
01AB   01BF           01077         clrf    DECAY_INC_MID
01AC   01C0           01078         clrf    DECAY_INC_HI
01AD   01C1           01079         clrf    RELEASE_INC_LO
01AE   01C2           01080         clrf    RELEASE_INC_MID
01AF   01C3           01081         clrf    RELEASE_INC_HI
                      01082         ; Set up the Punch increment (fixed stage length of about 5msecs)
01B0   30A0           01083         movlw   D'160'
01B1   00BB           01084         movwf   PUNCH_INC_LO
01B2   00BC           01085         movwf   PUNCH_INC_MID
01B3   3001           01086         movlw   D'1'
01B4   00BD           01087         movwf   PUNCH_INC_HI
                      01088         ; Clear the output buffers
01B5   01F6           01089         clrf    OUTPUT_HI
01B6   01F7           01090         clrf    OUTPUT_LO
                      01091         ; Set upo the ADC channel scan
01B7   3007           01092         movlw   D'7'
01B8   00F2           01093         movwf   ADC_CHANNEL                     ; Start with ATTACK_CV
                      01094         ; The first Attack starts at zero
01B9   01F4           01095         clrf    START_HI
01BA   01F5           01096         clrf    START_LO
                      01097         ; Set up the GATE & TRIGGER debounce
01BB   01B1           01098         clrf    DEBOUNCE_HI
01BC   01B2           01099         clrf    DEBOUNCE_LO
01BD   01B3           01100         clrf    STATES
01BE   01B4           01101         clrf    CHANGES
MPASM 5.73                   ENVGEN8Z209.ASM   5-7-2018  18:11:50         PAGE 22
DUAL ADSR

LOC  OBJECT CODE     LINE SOURCE TEXT
  VALUE

                      01102         
                      01103 ; Ok, that's all the setup done, let's get going
                      01104 
                      01105         ; Start outputting signals      
01BF   0020           01106         movlb   D'0'                            ; Bank 0        
01C0   178E           01107         bsf             T2CON, TMR2ON           ; Turn timer 2 on       
                      01108 
                      01109 
01C1                  01110 MainLoop:
                      01111         ; Change to next A/D channel
01C1   0AF2           01112         incf    ADC_CHANNEL, f
                      01113 
                      01114 ; We need to do different things depending on which value we're reading:
01C2                  01115 SelectADCChannel:
01C2   0872           01116         movf    ADC_CHANNEL, w          ; Get current channel
01C3   3907           01117         andlw   D'7'                            ; Only want 3 LSBs
                      01118         ; skip ADC until the DAC output is working with preset values - OZH
                      01119         ; TODO: reintroduce the ADC later
                      01120 ;       brw                                                     ; Computed branch
                      01121 ;       goto    AttackCV
                      01122 ;       goto    DecayCV
                      01123 ;       goto    SustainCV
                      01124 ;       goto    ReleaseCV
                      01125         ; don't process these channels, leave them hardcoded
                      01126 ;       goto    TimeCV
                      01127 ;       goto    ModeCV
                      01128 
01C4                  01129 ScannedAllChannels:
                      01130         ; Reset ADC channel 
01C4   3007           01131         movlw   D'7'
01C5   00F2           01132         movwf   ADC_CHANNEL
01C6   2???           01133         goto    MainLoop
                      01134 
                      01135 
                      01136 ; Update the Attack CV
01C7                  01137 AttackCV:
01C7   3001           01138         movlw   b'00000001'     ; AN0, ADC On
01C8   2???           01139         call    DoADConversion
01C9   00AB           01140         movwf   ATTACK_CV
                      01141         ; Subtract the TIME_CV (Increasing TIME_CV shortens the Env)
01CA   082F           01142         movfw   TIME_CV
01CB   022B           01143         subwf   ATTACK_CV, w
01CC   1C03           01144         btfss   BORROW
01CD   3000           01145         movlw   D'0'                            ; If value is <0, use minimum
                      01146         ; Get the new phase increment for the ATTACK stage
01CE   0084           01147         movwf   FSR0L                           ; Store index
01CF   30??           01148         movlw   HIGH ControlLookupHi; Get table page
01D0   0085           01149         movwf   FSR0H
01D1   0800           01150         movf    INDF0, w                        ; Get high byte
01D2   00BA           01151         movwf   ATTACK_INC_HI           ; Store it
01D3   0A85           01152         incf    FSR0H, f                        ; Move to mid table
01D4   0800           01153         movf    INDF0, w                        ; etc..
01D5   00B9           01154         movwf   ATTACK_INC_MID
MPASM 5.73                   ENVGEN8Z209.ASM   5-7-2018  18:11:50         PAGE 23
DUAL ADSR

LOC  OBJECT CODE     LINE SOURCE TEXT
  VALUE

01D6   0A85           01155         incf    FSR0H, f                        ; Move to lo table
01D7   0800           01156         movf    INDF0, w
01D8   00B8           01157         movwf   ATTACK_INC_LO
01D9   2???           01158         goto    MainLoop
                      01159 
                      01160 
                      01161 ; Update the Decay CV
01DA                  01162 DecayCV:
01DA   3009           01163         movlw   b'00001001'                     ; AN2, ADC On
01DB   2???           01164         call    DoADConversion
01DC   00AC           01165         movwf   DECAY_CV
                      01166         ; Subtract the TIME_CV (Increasing TIME_CV shortens the Env)
01DD   082F           01167         movfw   TIME_CV
01DE   022C           01168         subwf   DECAY_CV, w
01DF   1C03           01169         btfss   BORROW
01E0   3000           01170         movlw   D'0'                            ; If value is <0, use minimum
                      01171         ; Get the new phase increment for the DECAY stage
01E1   0084           01172         movwf   FSR0L                           ; Store index
01E2   30??           01173         movlw   HIGH ControlLookupHi; Get table page
01E3   0085           01174         movwf   FSR0H
01E4   0800           01175         movf    INDF0, w                        ; Get high byte
01E5   00C0           01176         movwf   DECAY_INC_HI            ; Store it
01E6   0A85           01177         incf    FSR0H, f                        ; Move to mid table
01E7   0800           01178         movf    INDF0, w                        ; etc..
01E8   00BF           01179         movwf   DECAY_INC_MID
01E9   0A85           01180         incf    FSR0H, f                        ; Move to lo table
01EA   0800           01181         movf    INDF0, w
01EB   00BE           01182         movwf   DECAY_INC_LO
01EC   2???           01183         goto    MainLoop
                      01184 
                      01185 
                      01186 ; Update the Sustain CV
01ED                  01187 SustainCV:
                      01188 ;       movlw   b'00010001'                     ; AN4, ADC On
                      01189     ; Question: in what way is the AN4? (looks like AN2 to me)
01ED   3012           01190         movlw   b'00010010'                     ; AN2, ADC On   Z209
01EE   2???           01191         call    DoADConversion
01EF   00AD           01192         movwf   SUSTAIN_CV                      ; Simply store this one- easy!
01F0   2???           01193         goto    MainLoop
                      01194 
                      01195 
                      01196 ; Update the Release CV
01F1                  01197 ReleaseCV:
                      01198 ;       movlw   b'00010101'                     ; AN5, ADC On
01F1   3013           01199         movlw   b'00010011'                     ; AN3, ADC On   Z209
01F2   2???           01200         call    DoADConversion
01F3   00AE           01201         movwf   RELEASE_CV
                      01202         ; Subtract the TIME_CV (Increasing TIME_CV shortens the Env)
01F4   082F           01203         movfw   TIME_CV
01F5   022E           01204         subwf   RELEASE_CV, w
01F6   1C03           01205         btfss   BORROW
01F7   3000           01206         movlw   D'0'                            ; If value is <0, use minimum
                      01207         ; Get the new phase increment for the RELEASE stage
MPASM 5.73                   ENVGEN8Z209.ASM   5-7-2018  18:11:50         PAGE 24
DUAL ADSR

LOC  OBJECT CODE     LINE SOURCE TEXT
  VALUE

01F8   0084           01208         movwf   FSR0L                           ; Store index
01F9   30??           01209         movlw   HIGH ControlLookupHi; Get table page
01FA   0085           01210         movwf   FSR0H
01FB   0800           01211         movf    INDF0, w                        ; Get high byte
01FC   00C3           01212         movwf   RELEASE_INC_HI          ; Store it
01FD   0A85           01213         incf    FSR0H, f                        ; Move to mid table
01FE   0800           01214         movf    INDF0, w                        ; etc..
01FF   00C2           01215         movwf   RELEASE_INC_MID
0200   0A85           01216         incf    FSR0H, f                        ; Move to lo table
0201   0800           01217         movf    INDF0, w
0202   00C1           01218         movwf   RELEASE_INC_LO
0203   2???           01219         goto    MainLoop
                      01220 
                      01221 
                      01222 ; Update the Time CV
0204                  01223 TimeCV:
0204   301D           01224         movlw   b'00011101'                     ; AN7, ADC On
0205   2???           01225         call    DoADConversion
                      01226         ; Put the value into TIME_CV where we can work on it
0206   00AF           01227         movwf   TIME_CV
                      01228         ; Reduce the resolution of the TIME CV so it isn't so extreme
0207   36AF           01229         lsrf    TIME_CV, f                      ; 0-127 Time CV
                      01230         ; Note that there is no glitch problem here, since the
                      01231         ; value can be updated in a single instruction.
0208   2???           01232         goto    MainLoop
                      01233 
                      01234         
                      01235 ; Update the Mode (ENV, LOOP, LFO)
0209                  01236 ModeCV:
0209   300D           01237         movlw   b'00001101'                     ; AN3, ADC On
020A   2???           01238         call    DoADConversion
                      01239         ; If both the top bits are set, we have LFO mode
                      01240         ; If neither top bit is set, we have Envelope mode
                      01241         ; Otherwise we have Looping envelope mode
                      01242         ; There's no hysteresis on this since I assume that the
                      01243         ; possible values are far apart.
020B   39C0           01244         andlw   B'11000000'             ; Get just the top two bits
020C   0630           01245         xorwf   MODE_CV, w              ; Is it different from the current mode?
020D   1903           01246         btfsc   ZERO
020E   2???           01247         goto    MainLoop                ; No, it's not
                      01248         ; Store the new Mode CV
020F   0873           01249         movf    ADC_VALUE, w
0210   39C0           01250         andlw   B'11000000'             ; Get just the top two bits
0211   00B0           01251         movwf   MODE_CV
                      01252 
                      01253 ; Now set one of the three modes from the MODE_CV value
0212                  01254 TestEnvelopeMode:
                      01255         ; Both bits clear is Envelope Mode
0212   1BB0           01256         btfsc   MODE_CV, 7              ; Test the highest bit
0213   2???           01257         goto    TestLFOMode
0214   1B30           01258         btfsc   MODE_CV, 6              ; Test the next-highest bit
0215   2???           01259         goto    TestLFOMode
                      01260         ; Ok, we're in Envelope Mode
MPASM 5.73                   ENVGEN8Z209.ASM   5-7-2018  18:11:50         PAGE 25
DUAL ADSR

LOC  OBJECT CODE     LINE SOURCE TEXT
  VALUE

0216                  01261 SetEnvelopeMode:
0216   10F1           01262         bcf             LOOPING                 ; A normal envelope
0217   1071           01263         bcf             LFO_MODE
0218   2???           01264         goto    MainLoop
                      01265 
0219                  01266 TestLFOMode:
                      01267         ; Both bits set is LFO mode
0219   1FB0           01268         btfss   MODE_CV, 7              ; Test the highest bit
021A   2???           01269         goto    SetLoopingEnvelopeMode
021B   1F30           01270         btfss   MODE_CV, 6              ; Test the next-highest bit
021C   2???           01271         goto    SetLoopingEnvelopeMode
                      01272         ; Ok, so we're in LFO Mode
021D                  01273 SetLFOMode:
021D   14F1           01274         bsf             LOOPING                 ; This mode loops forever
021E   1471           01275         bsf             LFO_MODE                ; and ignores GATE and TRIGGER
                      01276         ; Start the envelope
021F   01B5           01277         clrf    PHASE_HI
0220   01B6           01278         clrf    PHASE_MID
0221   01B7           01279         clrf    PHASE_LO
0222   0876           01280         movf    OUTPUT_HI, w    ; What's the current output level?
0223   00F4           01281         movwf   START_HI
0224   0877           01282         movf    OUTPUT_LO, w
0225   00F5           01283         movwf   START_LO
0226   3001           01284         movlw   D'1'                    ; Start the attack
0227   00AA           01285         movwf   STAGE
0228   2???           01286         goto    MainLoop
                      01287 
                      01288 ; If we got to here, there's only one other option
0229                  01289 SetLoopingEnvelopeMode:
0229   14F1           01290         bsf             LOOPING                 ; This mode loops, but only
022A   1071           01291         bcf             LFO_MODE                ; while the GATE is high
                      01292         ; Are we stuck in the Sustain stage?
022B   082A           01293         movf    STAGE, w
022C   3A04           01294         xorlw   D'4'
022D   1D03           01295         btfss   ZERO                    ; Is STAGE==4 yet? (SUSTAIN)
022E   2???           01296         goto    MainLoop                ; No, so that's fine
                      01297         ; Yes, we're in the Sustain stage, so jump directly to Release
022F   0876           01298         movf    OUTPUT_HI, w    ; What's the current output level?
0230   00F4           01299         movwf   START_HI
0231   0877           01300         movf    OUTPUT_LO, w
0232   00F5           01301         movwf   START_LO
                      01302         ; Move to RELEASE stage
0233   3005           01303         movlw   D'5'
0234   00AA           01304         movwf   STAGE
                      01305         ; Ok, all done
0235   2???           01306         goto    MainLoop
                      01307         
                      01308 
                      01309         
                      01310 ;-------------------------------------------------------
                      01311 ;       Control Lookup Tables (3 tables of 256 x 8-bit)
                      01312 ; Converts from 0-255 CV input to 20 bit PHASE_INC value
                      01313 ; The tables should be aligned to a 256-byte page boundary
MPASM 5.73                   ENVGEN8Z209.ASM   5-7-2018  18:11:50         PAGE 26
DUAL ADSR

LOC  OBJECT CODE     LINE SOURCE TEXT
  VALUE

                      01314 ;-------------------------------------------------------
                      01315 
                      01316  org     0x300                                  ; Need to start at 0x100 boundary
0300                  01317 ControlLookupHi:
0300   340B 340A 340A 01318         dt      D'11', D'10', D'10', D'9', D'8', D'8', D'7', D'7'
       3409 3408 3408 
       3407 3407 
0308   3407 3406 3406 01319         dt      D'7', D'6', D'6', D'5', D'5', D'5', D'5', D'4'
       3405 3405 3405 
       3405 3404 
0310   3404 3404 3404 01320         dt      D'4', D'4', D'4', D'4', D'3', D'3', D'3', D'3'
       3404 3403 3403 
       3403 3403 
0318   3403 3403 3403 01321         dt      D'3', D'3', D'3', D'2', D'2', D'2', D'2', D'2'
       3402 3402 3402 
       3402 3402 
0320   3402 3402 3402 01322         dt      D'2', D'2', D'2', D'2', D'2', D'1', D'1', D'1'
       3402 3402 3401 
       3401 3401 
0328   3401 3401 3401 01323         dt      D'1', D'1', D'1', D'1', D'1', D'1', D'1', D'1'
       3401 3401 3401 
       3401 3401 
0330   3401 3401 3401 01324         dt      D'1', D'1', D'1', D'1', D'1', D'1', D'1', D'1'
       3401 3401 3401 
       3401 3401 
0338   3400 3400 3400 01325         dt      D'0', D'0', D'0', D'0', D'0', D'0', D'0', D'0'
       3400 3400 3400 
       3400 3400 
                      01326 
0340   3400 3400 3400 01327         dt      D'0', D'0', D'0', D'0', D'0', D'0', D'0', D'0'
       3400 3400 3400 
       3400 3400 
0348   3400 3400 3400 01328         dt      D'0', D'0', D'0', D'0', D'0', D'0', D'0', D'0'
       3400 3400 3400 
       3400 3400 
0350   3400 3400 3400 01329         dt      D'0', D'0', D'0', D'0', D'0', D'0', D'0', D'0'
       3400 3400 3400 
       3400 3400 
0358   3400 3400 3400 01330         dt      D'0', D'0', D'0', D'0', D'0', D'0', D'0', D'0'
       3400 3400 3400 
       3400 3400 
0360   3400 3400 3400 01331         dt      D'0', D'0', D'0', D'0', D'0', D'0', D'0', D'0'
       3400 3400 3400 
       3400 3400 
0368   3400 3400 3400 01332         dt      D'0', D'0', D'0', D'0', D'0', D'0', D'0', D'0'
       3400 3400 3400 
       3400 3400 
0370   3400 3400 3400 01333         dt      D'0', D'0', D'0', D'0', D'0', D'0', D'0', D'0'
       3400 3400 3400 
       3400 3400 
0378   3400 3400 3400 01334         dt      D'0', D'0', D'0', D'0', D'0', D'0', D'0', D'0'
       3400 3400 3400 
       3400 3400 
MPASM 5.73                   ENVGEN8Z209.ASM   5-7-2018  18:11:50         PAGE 27
DUAL ADSR

LOC  OBJECT CODE     LINE SOURCE TEXT
  VALUE

                      01335 
0380   3400 3400 3400 01336         dt      D'0', D'0', D'0', D'0', D'0', D'0', D'0', D'0'
       3400 3400 3400 
       3400 3400 
0388   3400 3400 3400 01337         dt      D'0', D'0', D'0', D'0', D'0', D'0', D'0', D'0'
       3400 3400 3400 
       3400 3400 
0390   3400 3400 3400 01338         dt      D'0', D'0', D'0', D'0', D'0', D'0', D'0', D'0'
       3400 3400 3400 
       3400 3400 
0398   3400 3400 3400 01339         dt      D'0', D'0', D'0', D'0', D'0', D'0', D'0', D'0'
       3400 3400 3400 
       3400 3400 
03A0   3400 3400 3400 01340         dt      D'0', D'0', D'0', D'0', D'0', D'0', D'0', D'0'
       3400 3400 3400 
       3400 3400 
03A8   3400 3400 3400 01341         dt      D'0', D'0', D'0', D'0', D'0', D'0', D'0', D'0'
       3400 3400 3400 
       3400 3400 
03B0   3400 3400 3400 01342         dt      D'0', D'0', D'0', D'0', D'0', D'0', D'0', D'0'
       3400 3400 3400 
       3400 3400 
03B8   3400 3400 3400 01343         dt      D'0', D'0', D'0', D'0', D'0', D'0', D'0', D'0'
       3400 3400 3400 
       3400 3400 
                      01344 
03C0   3400 3400 3400 01345         dt      D'0', D'0', D'0', D'0', D'0', D'0', D'0', D'0'
       3400 3400 3400 
       3400 3400 
03C8   3400 3400 3400 01346         dt      D'0', D'0', D'0', D'0', D'0', D'0', D'0', D'0'
       3400 3400 3400 
       3400 3400 
03D0   3400 3400 3400 01347         dt      D'0', D'0', D'0', D'0', D'0', D'0', D'0', D'0'
       3400 3400 3400 
       3400 3400 
03D8   3400 3400 3400 01348         dt      D'0', D'0', D'0', D'0', D'0', D'0', D'0', D'0'
       3400 3400 3400 
       3400 3400 
03E0   3400 3400 3400 01349         dt      D'0', D'0', D'0', D'0', D'0', D'0', D'0', D'0'
       3400 3400 3400 
       3400 3400 
03E8   3400 3400 3400 01350         dt      D'0', D'0', D'0', D'0', D'0', D'0', D'0', D'0'
       3400 3400 3400 
       3400 3400 
03F0   3400 3400 3400 01351         dt      D'0', D'0', D'0', D'0', D'0', D'0', D'0', D'0'
       3400 3400 3400 
       3400 3400 
03F8   3400 3400 3400 01352         dt      D'0', D'0', D'0', D'0', D'0', D'0', D'0', D'0'
       3400 3400 3400 
       3400 3400 
                      01353 
                      01354 
0400                  01355 ControlLookupMid:
MPASM 5.73                   ENVGEN8Z209.ASM   5-7-2018  18:11:50         PAGE 28
DUAL ADSR

LOC  OBJECT CODE     LINE SOURCE TEXT
  VALUE

0400   34B3 34E1 3426 01356         dt      D'179', D'225', D'38', D'126', D'231', D'94', D'226', D'112'
       347E 34E7 345E 
       34E2 3470 
0408   3408 34A8 3450 01357         dt      D'8', D'168', D'80', D'254', D'178', D'107', D'41', D'235'
       34FE 34B2 346B 
       3429 34EB 
0410   34B2 347B 3448 01358         dt      D'178', D'123', D'72', D'24', D'235', D'192', D'152', D'114'
       3418 34EB 34C0 
       3498 3472 
0418   344D 342B 340A 01359         dt      D'77', D'43', D'10', D'235', D'206', D'178', D'151', D'125'
       34EB 34CE 34B2 
       3497 347D 
0420   3465 344D 3437 01360         dt      D'101', D'77', D'55', D'34', D'13', D'250', D'231', D'213'
       3422 340D 34FA 
       34E7 34D5 
0428   34C4 34B3 34A3 01361         dt      D'196', D'179', D'163', D'148', D'133', D'119', D'106', D'93'
       3494 3485 3477 
       346A 345D 
0430   3450 3444 3439 01362         dt      D'80', D'68', D'57', D'45', D'35', D'24', D'14', D'5'
       342D 3423 3418 
       340E 3405 
0438   34FC 34F3 34EA 01363         dt      D'252', D'243', D'234', D'226', D'218', D'210', D'203', D'196'
       34E2 34DA 34D2 
       34CB 34C4 
                      01364 
0440   34BD 34B6 34B0 01365         dt      D'189', D'182', D'176', D'170', D'164', D'158', D'152', D'147'
       34AA 34A4 349E 
       3498 3493 
0448   348E 3489 3484 01366         dt      D'142', D'137', D'132', D'128', D'123', D'119', D'115', D'111'
       3480 347B 3477 
       3473 346F 
0450   346B 3467 3463 01367         dt      D'107', D'103', D'99', D'96', D'92', D'89', D'86', D'83'
       3460 345C 3459 
       3456 3453 
0458   3450 344D 344B 01368         dt      D'80', D'77', D'75', D'72', D'69', D'67', D'65', D'62'
       3448 3445 3443 
       3441 343E 
0460   343C 343A 3438 01369         dt      D'60', D'58', D'56', D'54', D'52', D'50', D'48', D'47'
       3436 3434 3432 
       3430 342F 
0468   342D 342B 342A 01370         dt      D'45', D'43', D'42', D'40', D'39', D'38', D'36', D'35'
       3428 3427 3426 
       3424 3423 
0470   3422 3420 341F 01371         dt      D'34', D'32', D'31', D'30', D'29', D'28', D'27', D'26'
       341E 341D 341C 
       341B 341A 
0478   3419 3418 3417 01372         dt      D'25', D'24', D'23', D'22', D'22', D'21', D'20', D'19'
       3416 3416 3415 
       3414 3413 
                      01373 
0480   3413 3412 3411 01374         dt      D'19', D'18', D'17', D'17', D'16', D'16', D'15', D'14'
       3411 3410 3410 
       340F 340E 
MPASM 5.73                   ENVGEN8Z209.ASM   5-7-2018  18:11:50         PAGE 29
DUAL ADSR

LOC  OBJECT CODE     LINE SOURCE TEXT
  VALUE

0488   340E 340D 340D 01375         dt      D'14', D'13', D'13', D'12', D'12', D'11', D'11', D'11'
       340C 340C 340B 
       340B 340B 
0490   340A 340A 340A 01376         dt      D'10', D'10', D'10', D'9', D'9', D'8', D'8', D'8'
       3409 3409 3408 
       3408 3408 
0498   3408 3407 3407 01377         dt      D'8', D'7', D'7', D'7', D'6', D'6', D'6', D'6'
       3407 3406 3406 
       3406 3406 
04A0   3406 3405 3405 01378         dt      D'6', D'5', D'5', D'5', D'5', D'5', D'4', D'4'
       3405 3405 3405 
       3404 3404 
04A8   3404 3404 3404 01379         dt      D'4', D'4', D'4', D'4', D'3', D'3', D'3', D'3'
       3404 3403 3403 
       3403 3403 
04B0   3403 3403 3403 01380         dt      D'3', D'3', D'3', D'3', D'2', D'2', D'2', D'2'
       3403 3402 3402 
       3402 3402 
04B8   3402 3402 3402 01381         dt      D'2', D'2', D'2', D'2', D'2', D'2', D'2', D'1'
       3402 3402 3402 
       3402 3401 
                      01382 
04C0   3401 3401 3401 01383         dt      D'1', D'1', D'1', D'1', D'1', D'1', D'1', D'1'
       3401 3401 3401 
       3401 3401 
04C8   3401 3401 3401 01384         dt      D'1', D'1', D'1', D'1', D'1', D'1', D'1', D'1'
       3401 3401 3401 
       3401 3401 
04D0   3401 3401 3400 01385         dt      D'1', D'1', D'0', D'0', D'0', D'0', D'0', D'0'
       3400 3400 3400 
       3400 3400 
04D8   3400 3400 3400 01386         dt      D'0', D'0', D'0', D'0', D'0', D'0', D'0', D'0'
       3400 3400 3400 
       3400 3400 
04E0   3400 3400 3400 01387         dt      D'0', D'0', D'0', D'0', D'0', D'0', D'0', D'0'
       3400 3400 3400 
       3400 3400 
04E8   3400 3400 3400 01388         dt      D'0', D'0', D'0', D'0', D'0', D'0', D'0', D'0'
       3400 3400 3400 
       3400 3400 
04F0   3400 3400 3400 01389         dt      D'0', D'0', D'0', D'0', D'0', D'0', D'0', D'0'
       3400 3400 3400 
       3400 3400 
04F8   3400 3400 3400 01390         dt      D'0', D'0', D'0', D'0', D'0', D'0', D'0', D'0'
       3400 3400 3400 
       3400 3400 
                      01391 
                      01392 
0500                  01393 ControlLookupLo:
0500   34EE 349E 346D 01394         dt      D'238', D'158', D'109', D'192', D'180', D'241', D'137', D'231'
       34C0 34B4 34F1 
       3489 34E7 
0508   34B5 34D6 3457 01395         dt      D'181', D'214', D'87', D'106', D'93', D'152', D'149', D'224'
MPASM 5.73                   ENVGEN8Z209.ASM   5-7-2018  18:11:50         PAGE 30
DUAL ADSR

LOC  OBJECT CODE     LINE SOURCE TEXT
  VALUE

       346A 345D 3498 
       3495 34E0 
0510   3415 34D9 34DE 01396         dt      D'21', D'217', D'222', D'222', D'155', D'222', D'117', D'50'
       34DE 349B 34DE 
       3475 3432 
0518   34EF 3486 34D7 01397         dt      D'239', D'134', D'215', D'195', D'48', D'5', D'43', D'141'
       34C3 3430 3405 
       342B 348D 
0520   3418 34BB 3466 01398         dt      D'24', D'187', D'102', D'9', D'151', D'3', D'65', D'70'
       3409 3497 3403 
       3441 3446 
0528   3408 347D 349D 01399         dt      D'8', D'125', D'157', D'94', D'186', D'169', D'35', D'36'
       345E 34BA 34A9 
       3423 3424 
0530   34A3 349D 340B 01400         dt      D'163', D'157', D'11', D'232', D'48', D'222', D'238', D'91'
       34E8 3430 34DE 
       34EE 345B 
0538   3422 343F 34AF 01401         dt      D'34', D'63', D'175', D'110', D'122', D'207', D'106', D'72'
       346E 347A 34CF 
       346A 3448 
                      01402 
0540   3468 34C6 3461 01403         dt      D'104', D'198', D'97', D'53', D'66', D'132', D'249', D'161'
       3435 3442 3484 
       34F9 34A1 
0548   3478 347E 34B1 01404         dt      D'120', D'126', D'177', D'14', D'149', D'68', D'25', D'19'
       340E 3495 3444 
       3419 3413 
0550   3432 3473 34D5 01405         dt      D'50', D'115', D'213', D'87', D'249', D'184', D'149', D'141'
       3457 34F9 34B8 
       3495 348D 
0558   34A0 34CD 3414 01406         dt      D'160', D'205', D'20', D'114', D'232', D'117', D'23', D'207'
       3472 34E8 3475 
       3417 34CF 
0560   349A 347A 346C 01407         dt      D'154', D'122', D'108', D'112', D'135', D'174', D'230', D'45'
       3470 3487 34AE 
       34E6 342D 
0568   3484 34EA 345E 01408         dt      D'132', D'234', D'94', D'224', D'111', D'11', D'179', D'104'
       34E0 346F 340B 
       34B3 3468 
0570   3428 34F3 34C9 01409         dt      D'40', D'243', D'201', D'170', D'148', D'137', D'134', D'141'
       34AA 3494 3489 
       3486 348D 
0578   349D 34B4 34D4 01410         dt      D'157', D'180', D'212', D'252', D'44', D'99', D'161', D'229'
       34FC 342C 3463 
       34A1 34E5 
                      01411 
0580   3431 3482 34DA 01412         dt      D'49', D'130', D'218', D'56', D'155', D'4', D'115', D'230'
       3438 349B 3404 
       3473 34E6 
0588   345F 34DC 345E 01413         dt      D'95', D'220', D'94', D'228', D'110', D'253', D'144', D'39'
       34E4 346E 34FD 
       3490 3427 
0590   34C1 345F 3400 01414         dt      D'193', D'95', D'0', D'165', D'77', D'248', D'166', D'87'
MPASM 5.73                   ENVGEN8Z209.ASM   5-7-2018  18:11:50         PAGE 31
DUAL ADSR

LOC  OBJECT CODE     LINE SOURCE TEXT
  VALUE

       34A5 344D 34F8 
       34A6 3457 
0598   340B 34C2 347B 01415         dt      D'11', D'194', D'123', D'55', D'245', D'181', D'120', D'61'
       3437 34F5 34B5 
       3478 343D 
05A0   3404 34CD 3498 01416         dt      D'4', D'205', D'152', D'101', D'51', D'4', D'214', D'170'
       3465 3433 3404 
       34D6 34AA 
05A8   347F 3456 342E 01417         dt      D'127', D'86', D'46', D'8', D'227', D'191', D'157', D'124'
       3408 34E3 34BF 
       349D 347C 
05B0   345C 343D 3420 01418         dt      D'92', D'61', D'32', D'3', D'231', D'205', D'179', D'154'
       3403 34E7 34CD 
       34B3 349A 
05B8   3483 346C 3455 01419         dt      D'131', D'108', D'85', D'64', D'43', D'23', D'4', D'242'
       3440 342B 3417 
       3404 34F2 
                      01420 
05C0   34E0 34CF 34BE 01421         dt      D'224', D'207', D'190', D'174', D'159', D'144', D'130', D'116'
       34AE 349F 3490 
       3482 3474 
05C8   3466 345A 344D 01422         dt      D'102', D'90', D'77', D'65', D'54', D'43', D'32', D'22'
       3441 3436 342B 
       3420 3416 
05D0   340C 3402 34F9 01423         dt      D'12', D'2', D'249', D'240', D'231', D'223', D'215', D'207'
       34F0 34E7 34DF 
       34D7 34CF 
05D8   34C8 34C1 34BA 01424         dt      D'200', D'193', D'186', D'179', D'173', D'167', D'161', D'155'
       34B3 34AD 34A7 
       34A1 349B 
05E0   3495 3490 348B 01425         dt      D'149', D'144', D'139', D'134', D'129', D'124', D'120', D'116'
       3486 3481 347C 
       3478 3474 
05E8   346F 346B 3468 01426         dt      D'111', D'107', D'104', D'100', D'96', D'93', D'90', D'86'
       3464 3460 345D 
       345A 3456 
05F0   3453 3450 344D 01427         dt      D'83', D'80', D'77', D'75', D'72', D'69', D'67', D'64'
       344B 3448 3445 
       3443 3440 
05F8   343E 343C 343A 01428         dt      D'62', D'60', D'58', D'56', D'54', D'52', D'50', D'48'
       3438 3436 3434 
       3432 3430 
                      01429 
                      01430 
                      01431 ;------------------------------------------------------------------------------
                      01432 ;       Curve Lookup Tables (2 tables of 257 x 16-bit, Low byte, high byte)
                      01433 ; The Attack and Decay/Release curves are stored separately.
                      01434 ; This is because the Attack curve heads towards 6.5V but stops at 5V,
                      01435 ; whereas the Decay/Release curves actually arrive at their destination value.
                      01436 ; Note that because the linear count goes UP in all cases and
                      01437 ; hence needs inverting for Decay/Release, the Decay/Release curve is the same
                      01438 ; way up as the Attack. This way it gets the same inversion as the linear count,
                      01439 ; which makes life marginally simpler.
MPASM 5.73                   ENVGEN8Z209.ASM   5-7-2018  18:11:50         PAGE 32
DUAL ADSR

LOC  OBJECT CODE     LINE SOURCE TEXT
  VALUE

                      01440 ;------------------------------------------------------------------------------
                      01441  org     0x600                                  ; Need to start at page boundary
0600                  01442 AttackCurve:
0600   3400 3400 34E7 01443         dt      D'0', D'0', D'231', D'1', D'202', D'3', D'171', D'5'
       3401 34CA 3403 
       34AB 3405 
0608   348A 3407 3465 01444         dt      D'138', D'7', D'101', D'9', D'62', D'11', D'20', D'13'
       3409 343E 340B 
       3414 340D 
0610   34E8 340E 34B9 01445         dt      D'232', D'14', D'185', D'16', D'135', D'18', D'82', D'20'
       3410 3487 3412 
       3452 3414 
0618   341B 3416 34E1 01446         dt      D'27', D'22', D'225', D'23', D'165', D'25', D'102', D'27'
       3417 34A5 3419 
       3466 341B 
0620   3425 341D 34E1 01447         dt      D'37', D'29', D'225', D'30', D'154', D'32', D'81', D'34'
       341E 349A 3420 
       3451 3422 
0628   3406 3424 34B7 01448         dt      D'6', D'36', D'183', D'37', D'103', D'39', D'20', D'41'
       3425 3467 3427 
       3414 3429 
0630   34BE 342A 3466 01449         dt      D'190', D'42', D'102', D'44', D'12', D'46', D'175', D'47'
       342C 340C 342E 
       34AF 342F 
0638   3450 3431 34EF 01450         dt      D'80', D'49', D'239', D'50', D'139', D'52', D'37', D'54'
       3432 348B 3434 
       3425 3436 
                      01451 
0640   34BC 3437 3451 01452         dt      D'188', D'55', D'81', D'57', D'228', D'58', D'116', D'60'
       3439 34E4 343A 
       3474 343C 
0648   3403 343E 348F 01453         dt      D'3', D'62', D'143', D'63', D'24', D'65', D'160', D'66'
       343F 3418 3441 
       34A0 3442 
0650   3425 3444 34A8 01454         dt      D'37', D'68', D'168', D'69', D'41', D'71', D'167', D'72'
       3445 3429 3447 
       34A7 3448 
0658   3423 344A 349E 01455         dt      D'35', D'74', D'158', D'75', D'22', D'77', D'140', D'78'
       344B 3416 344D 
       348C 344E 
0660   34FF 344F 3471 01456         dt      D'255', D'79', D'113', D'81', D'224', D'82', D'78', D'84'
       3451 34E0 3452 
       344E 3454 
0668   34B9 3455 3422 01457         dt      D'185', D'85', D'34', D'87', D'138', D'88', D'239', D'89'
       3457 348A 3458 
       34EF 3459 
0670   3452 345B 34B3 01458         dt      D'82', D'91', D'179', D'92', D'18', D'94', D'111', D'95'
       345C 3412 345E 
       346F 345F 
0678   34CA 3460 3423 01459         dt      D'202', D'96', D'35', D'98', D'122', D'99', D'207', D'100'
       3462 347A 3463 
       34CF 3464 
                      01460 
MPASM 5.73                   ENVGEN8Z209.ASM   5-7-2018  18:11:50         PAGE 33
DUAL ADSR

LOC  OBJECT CODE     LINE SOURCE TEXT
  VALUE

0680   3423 3466 3474 01461         dt      D'35', D'102', D'116', D'103', D'195', D'104', D'17', D'106'
       3467 34C3 3468 
       3411 346A 
0688   345C 346B 34A6 01462         dt      D'92', D'107', D'166', D'108', D'238', D'109', D'51', D'111'
       346C 34EE 346D 
       3433 346F 
0690   3477 3470 34BA 01463         dt      D'119', D'112', D'186', D'113', D'250', D'114', D'56', D'116'
       3471 34FA 3472 
       3438 3474 
0698   3475 3475 34B0 01464         dt      D'117', D'117', D'176', D'118', D'233', D'119', D'32', D'121'
       3476 34E9 3477 
       3420 3479 
06A0   3456 347A 3489 01465         dt      D'86', D'122', D'137', D'123', D'187', D'124', D'236', D'125'
       347B 34BB 347C 
       34EC 347D 
06A8   341A 347F 3447 01466         dt      D'26', D'127', D'71', D'128', D'114', D'129', D'155', D'130'
       3480 3472 3481 
       349B 3482 
06B0   34C3 3483 34E9 01467         dt      D'195', D'131', D'233', D'132', D'13', D'134', D'48', D'135'
       3484 340D 3486 
       3430 3487 
06B8   3451 3488 3470 01468         dt      D'81', D'136', D'112', D'137', D'141', D'138', D'169', D'139'
       3489 348D 348A 
       34A9 348B 
                      01469 
06C0   34C4 348C 34DD 01470         dt      D'196', D'140', D'221', D'141', D'244', D'142', D'9', D'144'
       348D 34F4 348E 
       3409 3490 
06C8   341D 3491 3430 01471         dt      D'29', D'145', D'48', D'146', D'65', D'147', D'80', D'148'
       3492 3441 3493 
       3450 3494 
06D0   345E 3495 346A 01472         dt      D'94', D'149', D'106', D'150', D'117', D'151', D'126', D'152'
       3496 3475 3497 
       347E 3498 
06D8   3485 3499 348B 01473         dt      D'133', D'153', D'139', D'154', D'144', D'155', D'147', D'156'
       349A 3490 349B 
       3493 349C 
06E0   3495 349D 3495 01474         dt      D'149', D'157', D'149', D'158', D'148', D'159', D'145', D'160'
       349E 3494 349F 
       3491 34A0 
06E8   348D 34A1 3487 01475         dt      D'141', D'161', D'135', D'162', D'128', D'163', D'120', D'164'
       34A2 3480 34A3 
       3478 34A4 
06F0   346E 34A5 3463 01476         dt      D'110', D'165', D'99', D'166', D'86', D'167', D'72', D'168'
       34A6 3456 34A7 
       3448 34A8 
06F8   3438 34A9 3428 01477         dt      D'56', D'169', D'40', D'170', D'21', D'171', D'2', D'172'
       34AA 3415 34AB 
       3402 34AC 
                      01478 
0700   34ED 34AC 34D7 01479         dt      D'237', D'172', D'215', D'173', D'191', D'174', D'166', D'175'
       34AD 34BF 34AE 
       34A6 34AF 
MPASM 5.73                   ENVGEN8Z209.ASM   5-7-2018  18:11:50         PAGE 34
DUAL ADSR

LOC  OBJECT CODE     LINE SOURCE TEXT
  VALUE

0708   348C 34B0 3470 01480         dt      D'140', D'176', D'112', D'177', D'84', D'178', D'53', D'179'
       34B1 3454 34B2 
       3435 34B3 
0710   3416 34B4 34F5 01481         dt      D'22', D'180', D'245', D'180', D'211', D'181', D'176', D'182'
       34B4 34D3 34B5 
       34B0 34B6 
0718   348B 34B7 3466 01482         dt      D'139', D'183', D'102', D'184', D'63', D'185', D'22', D'186'
       34B8 343F 34B9 
       3416 34BA 
0720   34ED 34BA 34C2 01483         dt      D'237', D'186', D'194', D'187', D'150', D'188', D'105', D'189'
       34BB 3496 34BC 
       3469 34BD 
0728   343B 34BE 340B 01484         dt      D'59', D'190', D'11', D'191', D'218', D'191', D'169', D'192'
       34BF 34DA 34BF 
       34A9 34C0 
0730   3475 34C1 3441 01485         dt      D'117', D'193', D'65', D'194', D'12', D'195', D'213', D'195'
       34C2 340C 34C3 
       34D5 34C3 
0738   349D 34C4 3465 01486         dt      D'157', D'196', D'101', D'197', D'42', D'198', D'239', D'198'
       34C5 342A 34C6 
       34EF 34C6 
                      01487 
0740   34B3 34C7 3476 01488         dt      D'179', D'199', D'118', D'200', D'55', D'201', D'248', D'201'
       34C8 3437 34C9 
       34F8 34C9 
0748   34B7 34CA 3475 01489         dt      D'183', D'202', D'117', D'203', D'50', D'204', D'238', D'204'
       34CB 3432 34CC 
       34EE 34CC 
0750   34A9 34CD 3463 01490         dt      D'169', D'205', D'99', D'206', D'28', D'207', D'212', D'207'
       34CE 341C 34CF 
       34D4 34CF 
0758   348A 34D0 3440 01491         dt      D'138', D'208', D'64', D'209', D'245', D'209', D'168', D'210'
       34D1 34F5 34D1 
       34A8 34D2 
0760   345B 34D3 340C 01492         dt      D'91', D'211', D'12', D'212', D'189', D'212', D'108', D'213'
       34D4 34BD 34D4 
       346C 34D5 
0768   341B 34D6 34C9 01493         dt      D'27', D'214', D'201', D'214', D'117', D'215', D'33', D'216'
       34D6 3475 34D7 
       3421 34D8 
0770   34CB 34D8 3475 01494         dt      D'203', D'216', D'117', D'217', D'30', D'218', D'197', D'218'
       34D9 341E 34DA 
       34C5 34DA 
0778   346C 34DB 3412 01495         dt      D'108', D'219', D'18', D'220', D'183', D'220', D'90', D'221'
       34DC 34B7 34DC 
       345A 34DD 
                      01496 
0780   34FD 34DD 349F 01497         dt      D'253', D'221', D'159', D'222', D'64', D'223', D'225', D'223'
       34DE 3440 34DF 
       34E1 34DF 
0788   3480 34E0 341E 01498         dt      D'128', D'224', D'30', D'225', D'188', D'225', D'88', D'226'
       34E1 34BC 34E1 
       3458 34E2 
MPASM 5.73                   ENVGEN8Z209.ASM   5-7-2018  18:11:50         PAGE 35
DUAL ADSR

LOC  OBJECT CODE     LINE SOURCE TEXT
  VALUE

0790   34F4 34E2 348F 01499         dt      D'244', D'226', D'143', D'227', D'40', D'228', D'193', D'228'
       34E3 3428 34E4 
       34C1 34E4 
0798   345A 34E5 34F1 01500         dt      D'90', D'229', D'241', D'229', D'135', D'230', D'29', D'231'
       34E5 3487 34E6 
       341D 34E7 
07A0   34B1 34E7 3445 01501         dt      D'177', D'231', D'69', D'232', D'216', D'232', D'106', D'233'
       34E8 34D8 34E8 
       346A 34E9 
07A8   34FC 34E9 348C 01502         dt      D'252', D'233', D'140', D'234', D'28', D'235', D'171', D'235'
       34EA 341C 34EB 
       34AB 34EB 
07B0   3439 34EC 34C6 01503         dt      D'57', D'236', D'198', D'236', D'82', D'237', D'222', D'237'
       34EC 3452 34ED 
       34DE 34ED 
07B8   3469 34EE 34F3 01504         dt      D'105', D'238', D'243', D'238', D'124', D'239', D'4', D'240'
       34EE 347C 34EF 
       3404 34F0 
                      01505 
07C0   348C 34F0 3413 01506         dt      D'140', D'240', D'19', D'241', D'153', D'241', D'30', D'242'
       34F1 3499 34F1 
       341E 34F2 
07C8   34A3 34F2 3427 01507         dt      D'163', D'242', D'39', D'243', D'170', D'243', D'44', D'244'
       34F3 34AA 34F3 
       342C 34F4 
07D0   34AE 34F4 342F 01508         dt      D'174', D'244', D'47', D'245', D'175', D'245', D'46', D'246'
       34F5 34AF 34F5 
       342E 34F6 
07D8   34AD 34F6 342B 01509         dt      D'173', D'246', D'43', D'247', D'168', D'247', D'36', D'248'
       34F7 34A8 34F7 
       3424 34F8 
07E0   34A0 34F8 341B 01510         dt      D'160', D'248', D'27', D'249', D'149', D'249', D'15', D'250'
       34F9 3495 34F9 
       340F 34FA 
07E8   3488 34FA 3400 01511         dt      D'136', D'250', D'0', D'251', D'120', D'251', D'239', D'251'
       34FB 3478 34FB 
       34EF 34FB 
07F0   3465 34FC 34DB 01512         dt      D'101', D'252', D'219', D'252', D'80', D'253', D'196', D'253'
       34FC 3450 34FD 
       34C4 34FD 
07F8   3437 34FE 34AA 01513         dt      D'55', D'254', D'170', D'254', D'28', D'255', D'142', D'255'
       34FE 341C 34FF 
       348E 34FF 
                      01514  org     0x800                                  ; Need to start at page boundary
                      01515         ; One extra to make interp simple
0800   34FF 34FF      01516         dt      D'255', D'255'
                      01517 
0802                  01518 DecayCurve:
0802   3400 3400 342D 01519         dt      D'0', D'0', D'45', D'3', D'81', D'6', D'108', D'9'
       3403 3451 3406 
       346C 3409 
080A   347D 340C 3484 01520         dt      D'125', D'12', D'132', D'15', D'131', D'18', D'120', D'21'
       340F 3483 3412 
MPASM 5.73                   ENVGEN8Z209.ASM   5-7-2018  18:11:50         PAGE 36
DUAL ADSR

LOC  OBJECT CODE     LINE SOURCE TEXT
  VALUE

       3478 3415 
0812   3465 3418 3449 01521         dt      D'101', D'24', D'73', D'27', D'36', D'30', D'246', D'32'
       341B 3424 341E 
       34F6 3420 
081A   34C0 3423 3481 01522         dt      D'192', D'35', D'129', D'38', D'58', D'41', D'235', D'43'
       3426 343A 3429 
       34EB 342B 
0822   3493 342E 3434 01523         dt      D'147', D'46', D'52', D'49', D'204', D'51', D'93', D'54'
       3431 34CC 3433 
       345D 3436 
082A   34E6 3438 3467 01524         dt      D'230', D'56', D'103', D'59', D'225', D'61', D'83', D'64'
       343B 34E1 343D 
       3453 3440 
0832   34BE 3442 3421 01525         dt      D'190', D'66', D'33', D'69', D'126', D'71', D'211', D'73'
       3445 347E 3447 
       34D3 3449 
083A   3421 344C 3468 01526         dt      D'33', D'76', D'104', D'78', D'168', D'80', D'226', D'82'
       344E 34A8 3450 
       34E2 3452 
                      01527 
0842   3414 3455 3440 01528         dt      D'20', D'85', D'64', D'87', D'102', D'89', D'133', D'91'
       3457 3466 3459 
       3485 345B 
084A   349D 345D 34AF 01529         dt      D'157', D'93', D'175', D'95', D'187', D'97', D'193', D'99'
       345F 34BB 3461 
       34C1 3463 
0852   34C1 3465 34BA 01530         dt      D'193', D'101', D'186', D'103', D'174', D'105', D'155', D'107'
       3467 34AE 3469 
       349B 346B 
085A   3483 346D 3465 01531         dt      D'131', D'109', D'101', D'111', D'66', D'113', D'24', D'115'
       346F 3442 3471 
       3418 3473 
0862   34EA 3474 34B5 01532         dt      D'234', D'116', D'181', D'118', D'123', D'120', D'60', D'122'
       3476 347B 3478 
       343C 347A 
086A   34F8 347B 34AE 01533         dt      D'248', D'123', D'174', D'125', D'95', D'127', D'11', D'129'
       347D 345F 347F 
       340B 3481 
0872   34B2 3482 3454 01534         dt      D'178', D'130', D'84', D'132', D'241', D'133', D'137', D'135'
       3484 34F1 3485 
       3489 3487 
087A   341D 3489 34AB 01535         dt      D'29', D'137', D'171', D'138', D'53', D'140', D'186', D'141'
       348A 3435 348C 
       34BA 348D 
                      01536 
0882   343B 348F 34B7 01537         dt      D'59', D'143', D'183', D'144', D'46', D'146', D'161', D'147'
       3490 342E 3492 
       34A1 3493 
088A   3410 3495 347A 01538         dt      D'16', D'149', D'122', D'150', D'224', D'151', D'66', D'153'
       3496 34E0 3497 
       3442 3499 
0892   34A0 349A 34FA 01539         dt      D'160', D'154', D'250', D'155', D'79', D'157', D'160', D'158'
       349B 344F 349D 
MPASM 5.73                   ENVGEN8Z209.ASM   5-7-2018  18:11:50         PAGE 37
DUAL ADSR

LOC  OBJECT CODE     LINE SOURCE TEXT
  VALUE

       34A0 349E 
089A   34EE 349F 3437 01540         dt      D'238', D'159', D'55', D'161', D'125', D'162', D'191', D'163'
       34A1 347D 34A2 
       34BF 34A3 
08A2   34FD 34A4 3437 01541         dt      D'253', D'164', D'55', D'166', D'109', D'167', D'160', D'168'
       34A6 346D 34A7 
       34A0 34A8 
08AA   34CF 34A9 34FB 01542         dt      D'207', D'169', D'251', D'170', D'35', D'172', D'71', D'173'
       34AA 3423 34AC 
       3447 34AD 
08B2   3468 34AE 3486 01543         dt      D'104', D'174', D'134', D'175', D'160', D'176', D'183', D'177'
       34AF 34A0 34B0 
       34B7 34B1 
08BA   34CB 34B2 34DB 01544         dt      D'203', D'178', D'219', D'179', D'232', D'180', D'242', D'181'
       34B3 34E8 34B4 
       34F2 34B5 
                      01545 
08C2   34F9 34B6 34FD 01546         dt      D'249', D'182', D'253', D'183', D'254', D'184', D'251', D'185'
       34B7 34FE 34B8 
       34FB 34B9 
08CA   34F6 34BA 34EE 01547         dt      D'246', D'186', D'238', D'187', D'226', D'188', D'212', D'189'
       34BB 34E2 34BC 
       34D4 34BD 
08D2   34C3 34BE 34AF 01548         dt      D'195', D'190', D'175', D'191', D'153', D'192', D'127', D'193'
       34BF 3499 34C0 
       347F 34C1 
08DA   3463 34C2 3444 01549         dt      D'99', D'194', D'68', D'195', D'35', D'196', D'255', D'196'
       34C3 3423 34C4 
       34FF 34C4 
08E2   34D8 34C5 34AF 01550         dt      D'216', D'197', D'175', D'198', D'131', D'199', D'85', D'200'
       34C6 3483 34C7 
       3455 34C8 
08EA   3424 34C9 34F1 01551         dt      D'36', D'201', D'241', D'201', D'187', D'202', D'131', D'203'
       34C9 34BB 34CA 
       3483 34CB 
08F2   3449 34CC 340C 01552         dt      D'73', D'204', D'12', D'205', D'205', D'205', D'139', D'206'
       34CD 34CD 34CD 
       348B 34CE 
08FA   3448 34CF 3402 01553         dt      D'72', D'207', D'2', D'208', D'186', D'208', D'112', D'209'
       34D0 34BA 34D0 
       3470 34D1 
                      01554 
0902   3423 34D2 34D5 01555         dt      D'35', D'210', D'213', D'210', D'132', D'211', D'50', D'212'
       34D2 3484 34D3 
       3432 34D4 
090A   34DD 34D4 3486 01556         dt      D'221', D'212', D'134', D'213', D'46', D'214', D'211', D'214'
       34D5 342E 34D6 
       34D3 34D6 
0912   3476 34D7 3418 01557         dt      D'118', D'215', D'24', D'216', D'183', D'216', D'85', D'217'
       34D8 34B7 34D8 
       3455 34D9 
091A   34F0 34D9 348A 01558         dt      D'240', D'217', D'138', D'218', D'34', D'219', D'185', D'219'
       34DA 3422 34DB 
MPASM 5.73                   ENVGEN8Z209.ASM   5-7-2018  18:11:50         PAGE 38
DUAL ADSR

LOC  OBJECT CODE     LINE SOURCE TEXT
  VALUE

       34B9 34DB 
0922   344D 34DC 34E0 01559         dt      D'77', D'220', D'224', D'220', D'113', D'221', D'0', D'222'
       34DC 3471 34DD 
       3400 34DE 
092A   348E 34DE 341A 01560         dt      D'142', D'222', D'26', D'223', D'164', D'223', D'45', D'224'
       34DF 34A4 34DF 
       342D 34E0 
0932   34B4 34E0 3439 01561         dt      D'180', D'224', D'57', D'225', D'189', D'225', D'64', D'226'
       34E1 34BD 34E1 
       3440 34E2 
093A   34C0 34E2 3440 01562         dt      D'192', D'226', D'64', D'227', D'189', D'227', D'58', D'228'
       34E3 34BD 34E3 
       343A 34E4 
                      01563 
0942   34B4 34E4 342E 01564         dt      D'180', D'228', D'46', D'229', D'166', D'229', D'28', D'230'
       34E5 34A6 34E5 
       341C 34E6 
094A   3491 34E6 3405 01565         dt      D'145', D'230', D'5', D'231', D'119', D'231', D'232', D'231'
       34E7 3477 34E7 
       34E8 34E7 
0952   3458 34E8 34C6 01566         dt      D'88', D'232', D'198', D'232', D'51', D'233', D'159', D'233'
       34E8 3433 34E9 
       349F 34E9 
095A   3409 34EA 3473 01567         dt      D'9', D'234', D'115', D'234', D'218', D'234', D'65', D'235'
       34EA 34DA 34EA 
       3441 34EB 
0962   34A7 34EB 340B 01568         dt      D'167', D'235', D'11', D'236', D'110', D'236', D'208', D'236'
       34EC 346E 34EC 
       34D0 34EC 
096A   3431 34ED 3491 01569         dt      D'49', D'237', D'145', D'237', D'239', D'237', D'76', D'238'
       34ED 34EF 34ED 
       344C 34EE 
0972   34A9 34EE 3404 01570         dt      D'169', D'238', D'4', D'239', D'94', D'239', D'183', D'239'
       34EF 345E 34EF 
       34B7 34EF 
097A   340F 34F0 3466 01571         dt      D'15', D'240', D'102', D'240', D'188', D'240', D'17', D'241'
       34F0 34BC 34F0 
       3411 34F1 
                      01572 
0982   3465 34F1 34B8 01573         dt      D'101', D'241', D'184', D'241', D'10', D'242', D'91', D'242'
       34F1 340A 34F2 
       345B 34F2 
098A   34AB 34F2 34FA 01574         dt      D'171', D'242', D'250', D'242', D'72', D'243', D'149', D'243'
       34F2 3448 34F3 
       3495 34F3 
0992   34E2 34F3 342D 01575         dt      D'226', D'243', D'45', D'244', D'119', D'244', D'193', D'244'
       34F4 3477 34F4 
       34C1 34F4 
099A   340A 34F5 3452 01576         dt      D'10', D'245', D'82', D'245', D'153', D'245', D'223', D'245'
       34F5 3499 34F5 
       34DF 34F5 
09A2   3424 34F6 3469 01577         dt      D'36', D'246', D'105', D'246', D'173', D'246', D'240', D'246'
       34F6 34AD 34F6 
MPASM 5.73                   ENVGEN8Z209.ASM   5-7-2018  18:11:50         PAGE 39
DUAL ADSR

LOC  OBJECT CODE     LINE SOURCE TEXT
  VALUE

       34F0 34F6 
09AA   3432 34F7 3473 01578         dt      D'50', D'247', D'115', D'247', D'180', D'247', D'244', D'247'
       34F7 34B4 34F7 
       34F4 34F7 
09B2   3433 34F8 3471 01579         dt      D'51', D'248', D'113', D'248', D'175', D'248', D'236', D'248'
       34F8 34AF 34F8 
       34EC 34F8 
09BA   3428 34F9 3463 01580         dt      D'40', D'249', D'99', D'249', D'158', D'249', D'216', D'249'
       34F9 349E 34F9 
       34D8 34F9 
                      01581 
09C2   3411 34FA 344A 01582         dt      D'17', D'250', D'74', D'250', D'130', D'250', D'185', D'250'
       34FA 3482 34FA 
       34B9 34FA 
09CA   34F0 34FA 3426 01583         dt      D'240', D'250', D'38', D'251', D'91', D'251', D'144', D'251'
       34FB 345B 34FB 
       3490 34FB 
09D2   34C4 34FB 34F8 01584         dt      D'196', D'251', D'248', D'251', D'43', D'252', D'93', D'252'
       34FB 342B 34FC 
       345D 34FC 
09DA   348F 34FC 34C0 01585         dt      D'143', D'252', D'192', D'252', D'241', D'252', D'33', D'253'
       34FC 34F1 34FC 
       3421 34FD 
09E2   3450 34FD 347F 01586         dt      D'80', D'253', D'127', D'253', D'173', D'253', D'219', D'253'
       34FD 34AD 34FD 
       34DB 34FD 
09EA   3408 34FE 3435 01587         dt      D'8', D'254', D'53', D'254', D'97', D'254', D'141', D'254'
       34FE 3461 34FE 
       348D 34FE 
09F2   34B8 34FE 34E2 01588         dt      D'184', D'254', D'226', D'254', D'12', D'255', D'54', D'255'
       34FE 340C 34FF 
       3436 34FF 
09FA   345F 34FF 3488 01589         dt      D'95', D'255', D'136', D'255', D'176', D'255', D'216', D'255'
       34FF 34B0 34FF 
       34D8 34FF 
                      01590         ; One extra to make interp simple
0A02   34FF 34FF      01591         dt      D'255', D'255'
                      01592 
                      01593 ; We never reach here
                      01594 ;       end 
                      01595 ;================================================================
                      01596 ; end orig ENVGEN8 code
                      01597 ;================================================================ 
                      01598 
                      01599     ; ***** Miscellaneous Routines*********************************************
                      01600 
                      01601 ; -----------------------------------------------------------------------
                      01602 ; The pins on the PIC are organized into ports.  Each port is about 8 bits wide.  However this
                      01603 ; is only a general rule and your device may vary.
                      01604 
                      01605 ; To setup a particular pin, we need to put values into the corresponding Analog Select
                      01606 ; register, and Tri-state register.  This ensures that our pin will be an output, and that
                      01607 ; it will be a digital output.
MPASM 5.73                   ENVGEN8Z209.ASM   5-7-2018  18:11:50         PAGE 40
DUAL ADSR

LOC  OBJECT CODE     LINE SOURCE TEXT
  VALUE

                      01608         cblock
  00000079            01609             GIE_STATE   ;variable
                      01610         endc
0A04                  01611 Init_Ports
                      01612 ; convert working C code from DualEG (mcc generated) to ASM
                      01613 ;void PIN_MANAGER_Initialize(void)
0A04   0020           01614         movlb 0
0A05   0196           01615         clrf LATA   ;    LATA = 0x00;
0A06   3020           01616         movlw 0x20
0A07   0097           01617         movwf LATB  ;    LATB = 0x20;  
0A08   0198           01618         clrf LATC   ;    LATC = 0x00; 
                      01619 
                      01620 ;       movlb 0
0A09   30FF           01621         movlw 0xFF
0A0A   0091           01622         movwf TRISA ;    TRISA = 0xFF;
0A0B   0192           01623         clrf TRISB  ;    TRISB = 0x00;
0A0C   301F           01624         movlw 0x1F
0A0D   0093           01625         movwf TRISC ;    TRISC = 0x1F;
                      01626 
                      01627 ;   analog/digital (GPIO)
0A0E   003E           01628         movlb d'30'
0A0F   3004           01629         movlw 0x04
0A10   00CE           01630         movwf ANSELC    ;    ANSELC = 0x04;
0A11   3000           01631         movlw 0x00
0A12   00C3           01632         movwf ANSELB    ;    ANSELB = 0x00;
0A13   30FF           01633         movlw 0xFF
0A14   00B8           01634         movwf ANSELA    ;    ANSELA = 0xFF;
                      01635         
                      01636 ;   weak pullup
                      01637 ;       movlb d'30'
0A15   01E5           01638         clrf WPUE   ;    WPUE = 0x00;
0A16   30E0           01639         movlw 0xE0
0A17   00C4           01640         movwf WPUB  ;    WPUB = 0xE0;
0A18   01B9           01641         clrf WPUA   ;    WPUA = 0x00;
0A19   01CF           01642         clrf WPUC   ;    WPUC = 0x00;
                      01643 
                      01644 ;   open drain
                      01645 ;       movlb d'30'
0A1A   01BA           01646         clrf ODCONA ;    ODCONA = 0x00;
0A1B   01C5           01647         clrf ODCONB ;    ODCONB = 0x00;
0A1C   01D0           01648         clrf ODCONC ;    ODCONC = 0x00;   
                      01649         
                      01650 ;   preserve the GIE state - global interrupt enable
                      01651 ;    bool state = (unsigned char)GIE;
0A1D   080B           01652         movf  INTCON,w
0A1E   3980           01653         andlw b'10000000'   ;isolate bit 7
0A1F   00F9           01654         movwf GIE_STATE
                      01655 ;    GIE = 0;   shut it off for to do the config
0A20   080B           01656         movf  INTCON,w
0A21   397F           01657         andlw b'01111111'   ;clear bit 7
0A22   008B           01658         movwf INTCON
                      01659         
                      01660 ;   PPSLOCK takes a special sequence to unlock
MPASM 5.73                   ENVGEN8Z209.ASM   5-7-2018  18:11:50         PAGE 41
DUAL ADSR

LOC  OBJECT CODE     LINE SOURCE TEXT
  VALUE

0A23   003D           01661         movlb d'29'
0A24   3055           01662         movlw 0x55
0A25   008F           01663         movwf PPSLOCK ;    PPSLOCK = 0x55;
0A26   30AA           01664         movlw 0xAA
0A27   008F           01665         movwf PPSLOCK ;    PPSLOCK = 0xAA;
                      01666 ;   unlock to make a change (note PPSLOCKED is bit 0, the only active bit in PPSLOCK byte
0A28   018F           01667         clrf PPSLOCK  ;    PPSLOCKbits.PPSLOCKED = 0x00; // unlock PPS
                      01668 
                      01669 ;   set up I2C on SSP1  
                      01670 ;       movlb d'29'
0A29   3013           01671         movlw 0x13
0A2A   00C6           01672         movwf SSP1DATPPS ;    SSP1DATPPSbits.SSP1DATPPS = 0x13;   //RC3->MSSP1:SDA1;
0A2B   3014           01673         movlw 0x14
0A2C   00C5           01674         movwf SSP1CLKPPS ;    SSP1CLKPPSbits.SSP1CLKPPS = 0x14;   //RC4->MSSP1:SCL1;
                      01675         
0A2D   003E           01676         movlb d'30'
0A2E   3015           01677         movlw 0x15
0A2F   00A3           01678         movwf RC3PPS ;    RC3PPS = 0x15;   //RC3->MSSP1:SDA1;
0A30   3014           01679         movlw 0x14
0A31   00A4           01680         movwf RC4PPS ;    RC4PPS = 0x14;   //RC4->MSSP1:SCL1
                      01681 
                      01682 ;   set up SPI on SSP2  
0A32   003D           01683         movlb d'29'
0A33   3012           01684         movlw 0x12
0A34   00C9           01685         movwf SSP2DATPPS ;    SSP2DATPPSbits.SSP1DATPPS = 0x12;   //RB7->MSSP2:SPIDAT;
0A35   300E           01686         movlw 0x0E
0A36   00C8           01687         movwf SSP2CLKPPS ;    SSP2CLKPPSbits.SSP1CLKPPS = 0x0E;   //RB6->MSSP2:SPICL1;
0A37   300E           01688         movlw 0x0E
0A38   00CA           01689         movwf SSP2SSPPS  ;
                      01690         
0A39   003E           01691         movlb d'30'
0A3A   3017           01692         movlw 0x17
0A3B   009F           01693         movwf RB7PPS ;    RB7PPS = 0x17;   //RB7->MSSP2:SPIDAT;
0A3C   3016           01694         movlw 0x16
0A3D   009E           01695         movwf RB6PPS ;    RB6PPS = 0x16;   //RB6->MSSP2:SPICL1;
                      01696         
                      01697 ;   PPSLOCK takes a special sequence to lock
0A3E   003D           01698         movlb d'29'
0A3F   3055           01699         movlw 0x55
0A40   008F           01700         movwf PPSLOCK ;    PPSLOCK = 0x55;
0A41   30AA           01701         movlw 0xAA
0A42   008F           01702         movwf PPSLOCK ;    PPSLOCK = 0xAA;
                      01703         
0A43   3001           01704         movlw 0x01
0A44   008F           01705         movwf PPSLOCK ;    PPSLOCKbits.PPSLOCKED = 0x01; // lock PPS
                      01706 ;
                      01707 ;    GIE = state;
0A45   080B           01708         movf  INTCON,w      ; get the current value
Message[305]: Using default destination of 1 (file).
0A46   04F9           01709         iorwf GIE_STATE     ; OR with isolated bit 7
0A47   008B           01710         movwf INTCON        ; store it
                      01711 ;}  
                      01712 ;   set up SPI on SSP2
MPASM 5.73                   ENVGEN8Z209.ASM   5-7-2018  18:11:50         PAGE 42
DUAL ADSR

LOC  OBJECT CODE     LINE SOURCE TEXT
  VALUE

0A48   2???           01713         call Init_SPI2  ; SPI for DAC
                      01714         
0A49   0020           01715         movlb 0         ; reset to bank 0
0A4A   0008           01716         return
                      01717         
                      01718 ; convert working C code from DualEG (mcc generated) to ASM
0A4B                  01719 Init_SPI2
                      01720 ;    // Set the SPI2 module to the options selected in the User Interface
0A4B   0023           01721         movlb 3
                      01722 ;    // SMP Middle; CKE Idle to Active; = 0x00 MODE 1 when CKP Idle:Low, Active:High (not supported by M
                            CP4922)
                      01723 ;    // SMP Middle; CKE Active to Idle; = 0x40 MODE 0 when CKP Idle:Low, Active:High ( IS supported by M
                            CP4922)
                      01724 ;       0x20 is same as 0x40, but change clock to FOSC4 (8000kHz).  This was apparently too fast!!!     
0A4C   3040           01725         movlw 0x40
0A4D   0099           01726         movwf SSP2STAT   ;SSP2STAT = 0x00;
                      01727 ;    
                      01728 ;    // SSPEN enabled; CKP Idle:Low, Active:High; SSPM FOSC/4_SSPxADD;
0A4E   302A           01729         movlw 0x2A
0A4F   009A           01730         movwf SSP2CON1  ;SSP2CON1 = 0x2A;
                      01731 ;   
                      01732 ;    // SSPADD 24; 
0A50   3002           01733         movlw 0x02     ;chg to 2 ( 1 did not work)
0A51   0097           01734         movwf SSP2ADD   ;SSP2ADD = 0x02;
0A52   0008           01735         return
                      01736         
                      01737 ; convert working C code from DualEG (mcc generated) to ASM
                      01738 ;void OSCILLATOR_Initialize(void)
                      01739 ;{
0A53                  01740 Init_Osc
0A53   0031           01741         movlb d'17'
                      01742     ;// NOSC HFINTOSC; NDIV 1; 
                      01743     ;OSCCON1 = 0x60;
0A54   3060           01744         movlw 0x60
0A55   008D           01745         movwf OSCCON1
                      01746     ;// CSWHOLD may proceed; SOSCPWR Low power; 
                      01747     ;OSCCON3 = 0x00;
0A56   3000           01748         movlw 0x00              ; yes, I know I can 'clrf' this, but it may change later
0A57   008F           01749         movwf OSCCON3
                      01750     ;// MFOEN disabled; LFOEN disabled; ADOEN disabled; SOSCEN disabled; EXTOEN disabled; HFOEN disabled
                            ; 
                      01751     ;OSCEN = 0x00;
0A58   3000           01752         movlw 0x00
0A59   0091           01753         movwf OSCEN
                      01754     ;// HFFRQ 32_MHz; 
                      01755     ;OSCFRQ = 0x06;
0A5A   3006           01756         movlw 0x06
0A5B   0093           01757         movwf OSCFRQ
                      01758     ;// HFTUN 0; 
                      01759     ;OSCTUNE = 0x00;
0A5C   3000           01760         movlw 0x00
0A5D   0092           01761         movwf OSCTUNE
0A5E   0008           01762     return
MPASM 5.73                   ENVGEN8Z209.ASM   5-7-2018  18:11:50         PAGE 43
DUAL ADSR

LOC  OBJECT CODE     LINE SOURCE TEXT
  VALUE

                      01763 ;}
                      01764 
3FEC 3FFF 3F9F 1FFF 3F01765     END
       FF 
MPASM 5.73                   ENVGEN8Z209.ASM   5-7-2018  18:11:50         PAGE 44
DUAL ADSR

SYMBOL TABLE
  LABEL                             VALUE 

ABDEN                             00000000
ABDOVF                            00000007
ACC0                              00000000
ACC1                              00000001
ACC10                             00000002
ACC11                             00000003
ACC12                             00000004
ACC13                             00000005
ACC14                             00000006
ACC15                             00000007
ACC2                              00000002
ACC3                              00000003
ACC4                              00000004
ACC5                              00000005
ACC6                              00000006
ACC7                              00000007
ACC8                              00000000
ACC9                              00000001
ACCM                              00000004
ACKDT                             00000005
ACKEN                             00000004
ACKSTAT                           00000006
ACKTIM                            00000007
ADACC                             00000090
ADACC0                            00000000
ADACC1                            00000001
ADACC10                           00000002
ADACC11                           00000003
ADACC12                           00000004
ADACC13                           00000005
ADACC14                           00000006
ADACC15                           00000007
ADACC2                            00000002
ADACC3                            00000003
ADACC4                            00000004
ADACC5                            00000005
ADACC6                            00000006
ADACC7                            00000007
ADACC8                            00000000
ADACC9                            00000001
ADACCH                            00000091
ADACCL                            00000090
ADACLR                            00000003
ADACQ                             0000009D
ADACQ0                            00000000
ADACQ1                            00000001
ADACQ2                            00000002
ADACQ3                            00000003
ADACQ4                            00000004
ADACQ5                            00000005
ADACQ6                            00000006
ADACQ7                            00000007
ADACT                             00000099
MPASM 5.73                   ENVGEN8Z209.ASM   5-7-2018  18:11:50         PAGE 45
DUAL ADSR

SYMBOL TABLE
  LABEL                             VALUE 

ADACT0                            00000000
ADACT1                            00000001
ADACT2                            00000002
ADACT3                            00000003
ADACT4                            00000004
ADAOV                             00000007
ADCACTPPS                         00000EC3
ADCACTPPS0                        00000000
ADCACTPPS1                        00000001
ADCACTPPS2                        00000002
ADCACTPPS3                        00000003
ADCACTPPS4                        00000004
ADCALC0                           00000004
ADCALC1                           00000005
ADCALC2                           00000006
ADCAP                             0000009B
ADCAP0                            00000000
ADCAP1                            00000001
ADCAP2                            00000002
ADCAP3                            00000003
ADCAP4                            00000004
ADCCS0                            00000000
ADCCS1                            00000001
ADCCS2                            00000002
ADCCS3                            00000003
ADCCS4                            00000004
ADCCS5                            00000005
ADCLK                             00000098
ADCMD                             00000005
ADCNT                             0000010C
ADCNT0                            00000000
ADCNT1                            00000001
ADCNT2                            00000002
ADCNT3                            00000003
ADCNT4                            00000004
ADCNT5                            00000005
ADCNT6                            00000006
ADCNT7                            00000007
ADCON0                            00000093
ADCON1                            00000094
ADCON2                            00000095
ADCON3                            00000096
ADCONT                            00000006
ADCRS0                            00000004
ADCRS1                            00000005
ADCRS2                            00000006
ADCS                              00000004
ADC_CHANNEL                       00000072
ADC_VALUE                         00000073
ADDEN                             00000003
ADDSEN                            00000000
ADERR                             00000116
ADERR0                            00000000
MPASM 5.73                   ENVGEN8Z209.ASM   5-7-2018  18:11:50         PAGE 46
DUAL ADSR

SYMBOL TABLE
  LABEL                             VALUE 

ADERR1                            00000001
ADERR10                           00000002
ADERR11                           00000003
ADERR12                           00000004
ADERR13                           00000005
ADERR14                           00000006
ADERR15                           00000007
ADERR2                            00000002
ADERR3                            00000003
ADERR4                            00000004
ADERR5                            00000005
ADERR6                            00000006
ADERR7                            00000007
ADERR8                            00000000
ADERR9                            00000001
ADERRH                            00000117
ADERRL                            00000116
ADFLTR                            00000114
ADFLTR0                           00000000
ADFLTR1                           00000001
ADFLTR10                          00000002
ADFLTR11                          00000003
ADFLTR12                          00000004
ADFLTR13                          00000005
ADFLTR14                          00000006
ADFLTR15                          00000007
ADFLTR2                           00000002
ADFLTR3                           00000003
ADFLTR4                           00000004
ADFLTR5                           00000005
ADFLTR6                           00000006
ADFLTR7                           00000007
ADFLTR8                           00000000
ADFLTR9                           00000001
ADFLTRH                           00000115
ADFLTRL                           00000114
ADFM0                             00000002
ADFM1                             00000003
ADFRM0                            00000002
ADFRM1                            00000003
ADFVR0                            00000000
ADFVR1                            00000001
ADGO                              00000000
ADGPOL                            00000005
ADIE                              00000000
ADIF                              00000000
ADIPEN                            00000006
ADLTH                             0000010E
ADLTH0                            00000000
ADLTH1                            00000001
ADLTH10                           00000002
ADLTH11                           00000003
ADLTH12                           00000004
MPASM 5.73                   ENVGEN8Z209.ASM   5-7-2018  18:11:50         PAGE 47
DUAL ADSR

SYMBOL TABLE
  LABEL                             VALUE 

ADLTH13                           00000005
ADLTH14                           00000006
ADLTH15                           00000007
ADLTH2                            00000002
ADLTH3                            00000003
ADLTH4                            00000004
ADLTH5                            00000005
ADLTH6                            00000006
ADLTH7                            00000007
ADLTH8                            00000000
ADLTH9                            00000001
ADLTHH                            0000010F
ADLTHL                            0000010E
ADLTHR                            00000005
ADMACT                            00000003
ADMATH                            00000004
ADMD0                             00000000
ADMD1                             00000001
ADMD2                             00000002
ADMSK1                            00000001
ADMSK2                            00000002
ADMSK3                            00000003
ADMSK4                            00000004
ADMSK5                            00000005
ADNREF                            00000004
ADOEN                             00000002
ADON                              00000007
ADOR                              00000002
ADPCH                             0000009E
ADPCH0                            00000000
ADPCH1                            00000001
ADPCH2                            00000002
ADPCH3                            00000003
ADPCH4                            00000004
ADPCH5                            00000005
ADPPOL                            00000007
ADPRE                             0000009C
ADPRE0                            00000000
ADPRE1                            00000001
ADPRE2                            00000002
ADPRE3                            00000003
ADPRE4                            00000004
ADPRE5                            00000005
ADPRE6                            00000006
ADPRE7                            00000007
ADPREF0                           00000000
ADPREF1                           00000001
ADPREV                            0000008E
ADPREV0                           00000000
ADPREV1                           00000001
ADPREV10                          00000002
ADPREV11                          00000003
ADPREV12                          00000004
MPASM 5.73                   ENVGEN8Z209.ASM   5-7-2018  18:11:50         PAGE 48
DUAL ADSR

SYMBOL TABLE
  LABEL                             VALUE 

ADPREV13                          00000005
ADPREV14                          00000006
ADPREV15                          00000007
ADPREV2                           00000002
ADPREV3                           00000003
ADPREV4                           00000004
ADPREV5                           00000005
ADPREV6                           00000006
ADPREV7                           00000007
ADPREV8                           00000000
ADPREV9                           00000001
ADPREVH                           0000008F
ADPREVL                           0000008E
ADPSIS                            00000007
ADREF                             0000009A
ADRES                             0000008C
ADRESH                            0000008D
ADRESL                            0000008C
ADRPT                             0000010D
ADRPT0                            00000000
ADRPT1                            00000001
ADRPT2                            00000002
ADRPT3                            00000003
ADRPT4                            00000004
ADRPT5                            00000005
ADRPT6                            00000006
ADRPT7                            00000007
ADSOI                             00000003
ADSTAT                            00000097
ADSTAT0                           00000000
ADSTAT1                           00000001
ADSTAT2                           00000002
ADSTPT                            00000112
ADSTPT0                           00000000
ADSTPT1                           00000001
ADSTPT10                          00000002
ADSTPT11                          00000003
ADSTPT12                          00000004
ADSTPT13                          00000005
ADSTPT14                          00000006
ADSTPT15                          00000007
ADSTPT2                           00000002
ADSTPT3                           00000003
ADSTPT4                           00000004
ADSTPT5                           00000005
ADSTPT6                           00000006
ADSTPT7                           00000007
ADSTPT8                           00000000
ADSTPT9                           00000001
ADSTPTH                           00000113
ADSTPTL                           00000112
ADTIE                             00000001
ADTIF                             00000001
MPASM 5.73                   ENVGEN8Z209.ASM   5-7-2018  18:11:50         PAGE 49
DUAL ADSR

SYMBOL TABLE
  LABEL                             VALUE 

ADTMD0                            00000000
ADTMD1                            00000001
ADTMD2                            00000002
ADUTH                             00000110
ADUTH0                            00000000
ADUTH1                            00000001
ADUTH10                           00000002
ADUTH11                           00000003
ADUTH12                           00000004
ADUTH13                           00000005
ADUTH14                           00000006
ADUTH15                           00000007
ADUTH2                            00000002
ADUTH3                            00000003
ADUTH4                            00000004
ADUTH5                            00000005
ADUTH6                            00000006
ADUTH7                            00000007
ADUTH8                            00000000
ADUTH9                            00000001
ADUTHH                            00000111
ADUTHL                            00000110
ADUTHR                            00000006
AHEN                              00000001
ANSA0                             00000000
ANSA1                             00000001
ANSA2                             00000002
ANSA3                             00000003
ANSA4                             00000004
ANSA5                             00000005
ANSA6                             00000006
ANSA7                             00000007
ANSB0                             00000000
ANSB1                             00000001
ANSB2                             00000002
ANSB3                             00000003
ANSB4                             00000004
ANSB5                             00000005
ANSB6                             00000006
ANSB7                             00000007
ANSC0                             00000000
ANSC1                             00000001
ANSC2                             00000002
ANSC3                             00000003
ANSC4                             00000004
ANSC5                             00000005
ANSC6                             00000006
ANSC7                             00000007
ANSELA                            00000F38
ANSELB                            00000F43
ANSELC                            00000F4E
AS                                00000000
AS0E                              00000000
MPASM 5.73                   ENVGEN8Z209.ASM   5-7-2018  18:11:50         PAGE 50
DUAL ADSR

SYMBOL TABLE
  LABEL                             VALUE 

AS1E                              00000001
AS2E                              00000002
AS3E                              00000003
AS4E                              00000004
AS5E                              00000005
AS6E                              00000006
ATTACK_CV                         0000002B
ATTACK_INC_HI                     0000003A
ATTACK_INC_LO                     00000038
ATTACK_INC_MID                    00000039
Attack                            00000081
AttackCV                          000001C7
AttackCurve                       00000600
AttackScaling                     00000094
BAUD1CON                          0000011F
BAUDCON                           0000011F
BAUDCON1                          0000011F
BAUDCTL                           0000011F
BAUDCTL1                          0000011F
BCL1IE                            00000001
BCL1IF                            00000001
BCL2IE                            00000003
BCL2IF                            00000003
BF                                00000000
BIT0                              b'00000001'
BIT1                              b'00000010'
BIT2                              b'00000100'
BIT3                              b'00001000'
BIT4                              b'00010000'
BIT5                              b'00100000'
BIT6                              b'01000000'
BIT7                              b'10000000'
BOEN                              00000004
BORCON                            00000811
BORRDY                            00000000
BORROW                            STATUS,C
BRG16                             00000003
BRGH                              00000002
BSR                               00000008
BSR0                              00000000
BSR1                              00000001
BSR2                              00000002
BSR3                              00000003
BSR4                              00000004
BSR_SHAD                          00000FE6
BUSY                              00000005
C                                 00000000
C1HYS                             00000001
C1IE                              00000000
C1IF                              00000000
C1INTN                            00000000
C1INTP                            00000001
C1NCH0                            00000000
MPASM 5.73                   ENVGEN8Z209.ASM   5-7-2018  18:11:50         PAGE 51
DUAL ADSR

SYMBOL TABLE
  LABEL                             VALUE 

C1NCH1                            00000001
C1NCH2                            00000002
C1ON                              00000007
C1OUT_CM1CON0                     00000006
C1OUT_CMOUT                       00000000
C1OUT_CMSTAT                      00000000
C1PCH0                            00000000
C1PCH1                            00000001
C1PCH2                            00000002
C1POL                             00000004
C1SP                              00000002
C1SYNC                            00000000
C1TSEL0                           00000000
C1TSEL1                           00000001
C2HYS                             00000001
C2IE                              00000001
C2IF                              00000001
C2INTN                            00000000
C2INTP                            00000001
C2NCH0                            00000000
C2NCH1                            00000001
C2NCH2                            00000002
C2ON                              00000007
C2OUT_CM2CON0                     00000006
C2OUT_CMOUT                       00000001
C2OUT_CMSTAT                      00000001
C2PCH0                            00000000
C2PCH1                            00000001
C2PCH2                            00000002
C2POL                             00000004
C2SP                              00000002
C2SYNC                            00000000
C2TSEL0                           00000002
C2TSEL1                           00000003
C3TSEL0                           00000004
C3TSEL1                           00000005
C4TSEL0                           00000006
C4TSEL1                           00000007
C5TSEL0                           00000000
C5TSEL1                           00000001
CARRY                             STATUS,C
CCDCON                            00000814
CCDEN                             00000007
CCDNA                             00000F40
CCDNA0                            00000000
CCDNA1                            00000001
CCDNA2                            00000002
CCDNA3                            00000003
CCDNA4                            00000004
CCDNA5                            00000005
CCDNA6                            00000006
CCDNA7                            00000007
CCDNB                             00000F4B
MPASM 5.73                   ENVGEN8Z209.ASM   5-7-2018  18:11:50         PAGE 52
DUAL ADSR

SYMBOL TABLE
  LABEL                             VALUE 

CCDNB0                            00000000
CCDNB1                            00000001
CCDNB2                            00000002
CCDNB3                            00000003
CCDNB4                            00000004
CCDNB5                            00000005
CCDNB6                            00000006
CCDNB7                            00000007
CCDNC                             00000F56
CCDNC0                            00000000
CCDNC1                            00000001
CCDNC2                            00000002
CCDNC3                            00000003
CCDNC4                            00000004
CCDNC5                            00000005
CCDNC6                            00000006
CCDNC7                            00000007
CCDPA                             00000F41
CCDPA0                            00000000
CCDPA1                            00000001
CCDPA2                            00000002
CCDPA3                            00000003
CCDPA4                            00000004
CCDPA5                            00000005
CCDPA6                            00000006
CCDPA7                            00000007
CCDPB                             00000F4C
CCDPB0                            00000000
CCDPB1                            00000001
CCDPB2                            00000002
CCDPB3                            00000003
CCDPB4                            00000004
CCDPB5                            00000005
CCDPB6                            00000006
CCDPB7                            00000007
CCDPC                             00000F57
CCDPC0                            00000000
CCDPC1                            00000001
CCDPC2                            00000002
CCDPC3                            00000003
CCDPC4                            00000004
CCDPC5                            00000005
CCDPC6                            00000006
CCDPC7                            00000007
CCDS0                             00000000
CCDS1                             00000001
CCP1CAP                           0000030F
CCP1CON                           0000030E
CCP1CTS0                          00000000
CCP1CTS1                          00000001
CCP1CTS2                          00000002
CCP1EN                            00000007
CCP1FMT                           00000004
MPASM 5.73                   ENVGEN8Z209.ASM   5-7-2018  18:11:50         PAGE 53
DUAL ADSR

SYMBOL TABLE
  LABEL                             VALUE 

CCP1IE                            00000000
CCP1IF                            00000000
CCP1MD                            00000000
CCP1MODE0                         00000000
CCP1MODE1                         00000001
CCP1MODE2                         00000002
CCP1MODE3                         00000003
CCP1OE                            00000006
CCP1OUT                           00000005
CCP1PPS                           00000EA1
CCP1PPS0                          00000000
CCP1PPS1                          00000001
CCP1PPS2                          00000002
CCP1PPS3                          00000003
CCP1PPS4                          00000004
CCP2CAP                           00000313
CCP2CON                           00000312
CCP2CTS0                          00000000
CCP2CTS1                          00000001
CCP2CTS2                          00000002
CCP2EN                            00000007
CCP2FMT                           00000004
CCP2IE                            00000001
CCP2IF                            00000001
CCP2MD                            00000001
CCP2MODE0                         00000000
CCP2MODE1                         00000001
CCP2MODE2                         00000002
CCP2MODE3                         00000003
CCP2OE                            00000006
CCP2OUT                           00000005
CCP2PPS                           00000EA2
CCP2PPS0                          00000000
CCP2PPS1                          00000001
CCP2PPS2                          00000002
CCP2PPS3                          00000003
CCP2PPS4                          00000004
CCP3CAP                           00000317
CCP3CON                           00000316
CCP3CTS0                          00000000
CCP3CTS1                          00000001
CCP3CTS2                          00000002
CCP3EN                            00000007
CCP3FMT                           00000004
CCP3IE                            00000002
CCP3IF                            00000002
CCP3MD                            00000002
CCP3MODE0                         00000000
CCP3MODE1                         00000001
CCP3MODE2                         00000002
CCP3MODE3                         00000003
CCP3OE                            00000006
CCP3OUT                           00000005
MPASM 5.73                   ENVGEN8Z209.ASM   5-7-2018  18:11:50         PAGE 54
DUAL ADSR

SYMBOL TABLE
  LABEL                             VALUE 

CCP3PPS                           00000EA3
CCP3PPS0                          00000000
CCP3PPS1                          00000001
CCP3PPS2                          00000002
CCP3PPS3                          00000003
CCP3PPS4                          00000004
CCP4CAP                           0000031B
CCP4CON                           0000031A
CCP4CTS0                          00000000
CCP4CTS1                          00000001
CCP4CTS2                          00000002
CCP4EN                            00000007
CCP4FMT                           00000004
CCP4IE                            00000003
CCP4IF                            00000003
CCP4MD                            00000003
CCP4MODE0                         00000000
CCP4MODE1                         00000001
CCP4MODE2                         00000002
CCP4MODE3                         00000003
CCP4OE                            00000006
CCP4OUT                           00000005
CCP4PPS                           00000EA4
CCP4PPS0                          00000000
CCP4PPS1                          00000001
CCP4PPS2                          00000002
CCP4PPS3                          00000003
CCP4PPS4                          00000004
CCP5CAP                           0000031F
CCP5CON                           0000031E
CCP5CTS0                          00000000
CCP5CTS1                          00000001
CCP5CTS2                          00000002
CCP5EN                            00000007
CCP5FMT                           00000004
CCP5IE                            00000004
CCP5IF                            00000004
CCP5MD                            00000004
CCP5MODE0                         00000000
CCP5MODE1                         00000001
CCP5MODE2                         00000002
CCP5MODE3                         00000003
CCP5OE                            00000006
CCP5OUT                           00000005
CCP5PPS                           00000EA5
CCP5PPS0                          00000000
CCP5PPS1                          00000001
CCP5PPS2                          00000002
CCP5PPS3                          00000003
CCP5PPS4                          00000004
CCPR1                             0000030C
CCPR1H                            0000030D
CCPR1L                            0000030C
MPASM 5.73                   ENVGEN8Z209.ASM   5-7-2018  18:11:50         PAGE 55
DUAL ADSR

SYMBOL TABLE
  LABEL                             VALUE 

CCPR2                             00000310
CCPR2H                            00000311
CCPR2L                            00000310
CCPR3                             00000314
CCPR3H                            00000315
CCPR3L                            00000314
CCPR4                             00000318
CCPR4H                            00000319
CCPR4L                            00000318
CCPR5                             0000031C
CCPR5H                            0000031D
CCPR5L                            0000031C
CCPTMRS0                          0000021E
CCPTMRS1                          0000021F
CDAFVR0                           00000002
CDAFVR1                           00000003
CDIV0                             00000000
CDIV1                             00000001
CDIV2                             00000002
CDIV3                             00000003
CHANGES                           00000034
CKE                               00000006
CKP                               00000004
CKPOL                             00000006
CKPS0                             00000004
CKPS1                             00000005
CKPS2                             00000006
CKSYNC                            00000005
CLC1CON                           00000E10
CLC1GLS0                          00000E16
CLC1GLS1                          00000E17
CLC1GLS2                          00000E18
CLC1GLS3                          00000E19
CLC1IE                            00000004
CLC1IF                            00000004
CLC1MD                            00000001
CLC1POL                           00000E11
CLC1SEL0                          00000E12
CLC1SEL1                          00000E13
CLC1SEL2                          00000E14
CLC1SEL3                          00000E15
CLC2CON                           00000E1A
CLC2GLS0                          00000E20
CLC2GLS1                          00000E21
CLC2GLS2                          00000E22
CLC2GLS3                          00000E23
CLC2IE                            00000005
CLC2IF                            00000005
CLC2MD                            00000002
CLC2POL                           00000E1B
CLC2SEL0                          00000E1C
CLC2SEL1                          00000E1D
CLC2SEL2                          00000E1E
MPASM 5.73                   ENVGEN8Z209.ASM   5-7-2018  18:11:50         PAGE 56
DUAL ADSR

SYMBOL TABLE
  LABEL                             VALUE 

CLC2SEL3                          00000E1F
CLC3CON                           00000E24
CLC3GLS0                          00000E2A
CLC3GLS1                          00000E2B
CLC3GLS2                          00000E2C
CLC3GLS3                          00000E2D
CLC3IE                            00000006
CLC3IF                            00000006
CLC3MD                            00000003
CLC3POL                           00000E25
CLC3SEL0                          00000E26
CLC3SEL1                          00000E27
CLC3SEL2                          00000E28
CLC3SEL3                          00000E29
CLC4CON                           00000E2E
CLC4GLS0                          00000E34
CLC4GLS1                          00000E35
CLC4GLS2                          00000E36
CLC4GLS3                          00000E37
CLC4IE                            00000007
CLC4IF                            00000007
CLC4MD                            00000004
CLC4POL                           00000E2F
CLC4SEL0                          00000E30
CLC4SEL1                          00000E31
CLC4SEL2                          00000E32
CLC4SEL3                          00000E33
CLCDATA                           00000E0F
CLCIN0PPS                         00000EBB
CLCIN0PPS0                        00000000
CLCIN0PPS1                        00000001
CLCIN0PPS2                        00000002
CLCIN0PPS3                        00000003
CLCIN0PPS4                        00000004
CLCIN1PPS                         00000EBC
CLCIN1PPS0                        00000000
CLCIN1PPS1                        00000001
CLCIN1PPS2                        00000002
CLCIN1PPS3                        00000003
CLCIN1PPS4                        00000004
CLCIN2PPS                         00000EBD
CLCIN2PPS0                        00000000
CLCIN2PPS1                        00000001
CLCIN2PPS2                        00000002
CLCIN2PPS3                        00000003
CLCIN2PPS4                        00000004
CLCIN3PPS                         00000EBE
CLCIN3PPS0                        00000000
CLCIN3PPS1                        00000001
CLCIN3PPS2                        00000002
CLCIN3PPS3                        00000003
CLCIN3PPS4                        00000004
CLKRCLK                           00000896
MPASM 5.73                   ENVGEN8Z209.ASM   5-7-2018  18:11:50         PAGE 57
DUAL ADSR

SYMBOL TABLE
  LABEL                             VALUE 

CLKRCLK0                          00000000
CLKRCLK1                          00000001
CLKRCLK2                          00000002
CLKRCLK3                          00000003
CLKRCON                           00000895
CLKRDC0                           00000003
CLKRDC1                           00000004
CLKRDIV0                          00000000
CLKRDIV1                          00000001
CLKRDIV2                          00000002
CLKREN                            00000007
CLKRMD                            00000001
CM1CON0                           00000990
CM1CON1                           00000991
CM1NSEL                           00000992
CM1PSEL                           00000993
CM2CON0                           00000994
CM2CON1                           00000995
CM2NSEL                           00000996
CM2PSEL                           00000997
CMOUT                             0000098F
CMP1MD                            00000001
CMP2MD                            00000002
CMSTAT                            0000098F
COSC0                             00000004
COSC1                             00000005
COSC2                             00000006
CPOL                              00000002
CPR0                              00000000
CPR1                              00000001
CPR10                             00000002
CPR11                             00000003
CPR12                             00000004
CPR13                             00000005
CPR14                             00000006
CPR15                             00000007
CPR16                             00000000
CPR17                             00000001
CPR18                             00000002
CPR19                             00000003
CPR2                              00000002
CPR20                             00000004
CPR21                             00000005
CPR22                             00000006
CPR23                             00000007
CPR3                              00000003
CPR4                              00000004
CPR5                              00000005
CPR6                              00000006
CPR7                              00000007
CPR8                              00000000
CPR9                              00000001
CPRUP                             00000007
MPASM 5.73                   ENVGEN8Z209.ASM   5-7-2018  18:11:50         PAGE 58
DUAL ADSR

SYMBOL TABLE
  LABEL                             VALUE 

CPUDOZE                           0000088C
CPW0                              00000000
CPW1                              00000001
CPW10                             00000002
CPW11                             00000003
CPW12                             00000004
CPW13                             00000005
CPW14                             00000006
CPW15                             00000007
CPW16                             00000000
CPW17                             00000001
CPW18                             00000002
CPW19                             00000003
CPW2                              00000002
CPW20                             00000004
CPW21                             00000005
CPW22                             00000006
CPW23                             00000007
CPW3                              00000003
CPW4                              00000004
CPW5                              00000005
CPW6                              00000006
CPW7                              00000007
CPW8                              00000000
CPW9                              00000001
CPWUP                             00000006
CRCACC                            00000418
CRCACCH                           00000419
CRCACCL                           00000418
CRCCON0                           0000041E
CRCCON1                           0000041F
CRCDATA                           00000416
CRCDATH                           00000417
CRCDATL                           00000416
CRCEN                             00000007
CRCGO                             00000006
CRCIE                             00000006
CRCIF                             00000006
CRCMD                             00000004
CRCSHFT                           0000041A
CRCSHIFTH                         0000041B
CRCSHIFTL                         0000041A
CRCXOR                            0000041C
CRCXORH                           0000041D
CRCXORL                           0000041C
CREN                              00000004
CS                                00000000
CS0                               00000000
CS1                               00000001
CS2                               00000002
CS3                               00000003
CSEL0                             00000000
CSEL1                             00000001
MPASM 5.73                   ENVGEN8Z209.ASM   5-7-2018  18:11:50         PAGE 59
DUAL ADSR

SYMBOL TABLE
  LABEL                             VALUE 

CSEL2                             00000002
CSRC                              00000007
CSWHOLD                           00000007
CSWIE                             00000006
CSWIF                             00000006
CTS0                              00000000
CTS1                              00000001
CTS2                              00000002
CURVE_OUT_HI                      00000024
CURVE_OUT_LO                      00000025
CWG1AS0                           00000612
CWG1AS1                           00000613
CWG1CLKCON                        0000060C
CWG1CON0                          00000610
CWG1CON1                          00000611
CWG1CS                            00000000
CWG1DBF                           0000060F
CWG1DBF0                          00000000
CWG1DBF1                          00000001
CWG1DBF2                          00000002
CWG1DBF3                          00000003
CWG1DBF4                          00000004
CWG1DBF5                          00000005
CWG1DBR                           0000060E
CWG1DBR0                          00000000
CWG1DBR1                          00000001
CWG1DBR2                          00000002
CWG1DBR3                          00000003
CWG1DBR4                          00000004
CWG1DBR5                          00000005
CWG1EN                            00000007
CWG1IE                            00000000
CWG1IF                            00000000
CWG1IN                            00000005
CWG1ISM                           0000060D
CWG1ISM0                          00000000
CWG1ISM1                          00000001
CWG1ISM2                          00000002
CWG1ISM3                          00000003
CWG1LD                            00000006
CWG1LSAC0                         00000002
CWG1LSAC1                         00000003
CWG1LSBD0                         00000004
CWG1LSBD1                         00000005
CWG1MD                            00000000
CWG1MODE0                         00000000
CWG1MODE1                         00000001
CWG1MODE2                         00000002
CWG1OVRA                          00000004
CWG1OVRB                          00000005
CWG1OVRC                          00000006
CWG1OVRD                          00000007
CWG1POLA                          00000000
MPASM 5.73                   ENVGEN8Z209.ASM   5-7-2018  18:11:50         PAGE 60
DUAL ADSR

SYMBOL TABLE
  LABEL                             VALUE 

CWG1POLB                          00000001
CWG1POLC                          00000002
CWG1POLD                          00000003
CWG1PPS                           00000EB1
CWG1PPS0                          00000000
CWG1PPS1                          00000001
CWG1PPS2                          00000002
CWG1PPS3                          00000003
CWG1PPS4                          00000004
CWG1REN                           00000006
CWG1SHUTDOWN                      00000007
CWG1STR                           00000614
CWG1STRA                          00000000
CWG1STRB                          00000001
CWG1STRC                          00000002
CWG1STRD                          00000003
CWG2AS0                           0000061C
CWG2AS1                           0000061D
CWG2CLKCON                        00000616
CWG2CON0                          0000061A
CWG2CON1                          0000061B
CWG2CS                            00000000
CWG2DBF                           00000619
CWG2DBF0                          00000000
CWG2DBF1                          00000001
CWG2DBF2                          00000002
CWG2DBF3                          00000003
CWG2DBF4                          00000004
CWG2DBF5                          00000005
CWG2DBR                           00000618
CWG2DBR0                          00000000
CWG2DBR1                          00000001
CWG2DBR2                          00000002
CWG2DBR3                          00000003
CWG2DBR4                          00000004
CWG2DBR5                          00000005
CWG2EN                            00000007
CWG2IE                            00000001
CWG2IF                            00000001
CWG2IN                            00000005
CWG2ISM                           00000617
CWG2ISM0                          00000000
CWG2ISM1                          00000001
CWG2ISM2                          00000002
CWG2ISM3                          00000003
CWG2LD                            00000006
CWG2LSAC0                         00000002
CWG2LSAC1                         00000003
CWG2LSBD0                         00000004
CWG2LSBD1                         00000005
CWG2MD                            00000001
CWG2MODE0                         00000000
CWG2MODE1                         00000001
MPASM 5.73                   ENVGEN8Z209.ASM   5-7-2018  18:11:50         PAGE 61
DUAL ADSR

SYMBOL TABLE
  LABEL                             VALUE 

CWG2MODE2                         00000002
CWG2OVRA                          00000004
CWG2OVRB                          00000005
CWG2OVRC                          00000006
CWG2OVRD                          00000007
CWG2POLA                          00000000
CWG2POLB                          00000001
CWG2POLC                          00000002
CWG2POLD                          00000003
CWG2PPS                           00000EB2
CWG2PPS0                          00000000
CWG2PPS1                          00000001
CWG2PPS2                          00000002
CWG2PPS3                          00000003
CWG2PPS4                          00000004
CWG2REN                           00000006
CWG2SHUTDOWN                      00000007
CWG2STR                           0000061E
CWG2STRA                          00000000
CWG2STRB                          00000001
CWG2STRC                          00000002
CWG2STRD                          00000003
CWG3AS0                           00000692
CWG3AS1                           00000693
CWG3CLKCON                        0000068C
CWG3CON0                          00000690
CWG3CON1                          00000691
CWG3CS                            00000000
CWG3DBF                           0000068F
CWG3DBF0                          00000000
CWG3DBF1                          00000001
CWG3DBF2                          00000002
CWG3DBF3                          00000003
CWG3DBF4                          00000004
CWG3DBF5                          00000005
CWG3DBR                           0000068E
CWG3DBR0                          00000000
CWG3DBR1                          00000001
CWG3DBR2                          00000002
CWG3DBR3                          00000003
CWG3DBR4                          00000004
CWG3DBR5                          00000005
CWG3EN                            00000007
CWG3IE                            00000002
CWG3IF                            00000002
CWG3IN                            00000005
CWG3ISM                           0000068D
CWG3ISM0                          00000000
CWG3ISM1                          00000001
CWG3ISM2                          00000002
CWG3ISM3                          00000003
CWG3LD                            00000006
CWG3LSAC0                         00000002
MPASM 5.73                   ENVGEN8Z209.ASM   5-7-2018  18:11:50         PAGE 62
DUAL ADSR

SYMBOL TABLE
  LABEL                             VALUE 

CWG3LSAC1                         00000003
CWG3LSBD0                         00000004
CWG3LSBD1                         00000005
CWG3MD                            00000002
CWG3MODE0                         00000000
CWG3MODE1                         00000001
CWG3MODE2                         00000002
CWG3OVRA                          00000004
CWG3OVRB                          00000005
CWG3OVRC                          00000006
CWG3OVRD                          00000007
CWG3POLA                          00000000
CWG3POLB                          00000001
CWG3POLC                          00000002
CWG3POLD                          00000003
CWG3PPS                           00000EB3
CWG3PPS0                          00000000
CWG3PPS1                          00000001
CWG3PPS2                          00000002
CWG3PPS3                          00000003
CWG3PPS4                          00000004
CWG3REN                           00000006
CWG3SHUTDOWN                      00000007
CWG3STR                           00000694
CWG3STRA                          00000000
CWG3STRB                          00000001
CWG3STRC                          00000002
CWG3STRD                          00000003
C_SHAD                            00000000
ControlLookupHi                   00000300
ControlLookupLo                   00000500
ControlLookupMid                  00000400
D1N                               00000000
D1S0                              00000000
D1S1                              00000001
D1S2                              00000002
D1S3                              00000003
D1S4                              00000004
D1S5                              00000005
D1S6                              00000006
D1S7                              00000007
D1T                               00000001
D2N                               00000002
D2S0                              00000000
D2S1                              00000001
D2S2                              00000002
D2S3                              00000003
D2S4                              00000004
D2S5                              00000005
D2S6                              00000006
D2S7                              00000007
D2T                               00000003
D3N                               00000004
MPASM 5.73                   ENVGEN8Z209.ASM   5-7-2018  18:11:50         PAGE 63
DUAL ADSR

SYMBOL TABLE
  LABEL                             VALUE 

D3S0                              00000000
D3S1                              00000001
D3S2                              00000002
D3S3                              00000003
D3S4                              00000004
D3S5                              00000005
D3S6                              00000006
D3S7                              00000007
D3T                               00000005
D4N                               00000006
D4S0                              00000000
D4S1                              00000001
D4S2                              00000002
D4S3                              00000003
D4S4                              00000004
D4S5                              00000005
D4S6                              00000006
D4S7                              00000007
D4T                               00000007
DABORT                            00000004
DAC0                              0x00
DAC1                              BIT7
DAC1CON0                          0000090E
DAC1CON1                          0000090F
DAC1EN                            00000007
DAC1NSS                           00000000
DAC1OE1                           00000005
DAC1OE2                           00000004
DAC1PSS0                          00000002
DAC1PSS1                          00000003
DAC1R0                            00000000
DAC1R1                            00000001
DAC1R2                            00000002
DAC1R3                            00000003
DAC1R4                            00000004
DACMD                             00000006
DACNUMBER                         00000078
DACOutput                         000000D8
DATA0                             00000000
DATA1                             00000001
DATA10                            00000002
DATA11                            00000003
DATA12                            00000004
DATA13                            00000005
DATA14                            00000006
DATA15                            00000007
DATA2                             00000002
DATA3                             00000003
DATA4                             00000004
DATA5                             00000005
DATA6                             00000006
DATA7                             00000007
DATA8                             00000000
MPASM 5.73                   ENVGEN8Z209.ASM   5-7-2018  18:11:50         PAGE 64
DUAL ADSR

SYMBOL TABLE
  LABEL                             VALUE 

DATA9                             00000001
DATA_ADDRESS                      00000005
DBF0                              00000000
DBF1                              00000001
DBF2                              00000002
DBF3                              00000003
DBF4                              00000004
DBF5                              00000005
DBR0                              00000000
DBR1                              00000001
DBR2                              00000002
DBR3                              00000003
DBR4                              00000004
DBR5                              00000005
DC                                00000001
DC0                               00000006
DC1                               00000007
DC2                               00000000
DC3                               00000001
DC4                               00000002
DC5                               00000003
DC6                               00000004
DC7                               00000005
DC8                               00000006
DC9                               00000007
DC_SHAD                           00000001
DEBOUNCE_HI                       00000031
DEBOUNCE_LO                       00000032
DECAY_CV                          0000002C
DECAY_INC_HI                      00000040
DECAY_INC_LO                      0000003E
DECAY_INC_MID                     0000003F
DHEN                              00000000
DLEN0                             00000004
DLEN1                             00000005
DLEN2                             00000006
DLEN3                             00000007
DOE                               00000004
DONE                              00000000
DOZE0                             00000000
DOZE1                             00000001
DOZE2                             00000002
DOZEN                             00000006
DSMMD                             00000000
D_A                               00000005
D_NOT_A                           00000005
Decay                             000000A0
DecayCV                           000001DA
DecayCurve                        00000802
DecayScaling                      000000B2
DoADConversion                    00000175
EN                                00000007
ENV_OUT_HI                        DAC1REFH
MPASM 5.73                   ENVGEN8Z209.ASM   5-7-2018  18:11:50         PAGE 65
DUAL ADSR

SYMBOL TABLE
  LABEL                             VALUE 

ENV_OUT_LO                        DAC1REFL
EXTOEN                            00000007
EXTOR                             00000007
EndEnvelope                       00000029
ExponentialAttack                 0000008B
ExponentialDecay                  000000A9
ExponentialRelease                000000C6
F                                 00000001
FERR                              00000002
FLAGS                             00000071
FMT                               00000004
FREE                              00000004
FSR0                              00000004
FSR0H                             00000005
FSR0H_SHAD                        00000FE9
FSR0L                             00000004
FSR0L_SHAD                        00000FE8
FSR1                              00000006
FSR1H                             00000007
FSR1H_SHAD                        00000FEB
FSR1L                             00000006
FSR1L_SHAD                        00000FEA
FULL                              00000000
FVRCON                            0000090C
FVREN                             00000007
FVRMD                             00000006
FVRRDY                            00000006
G1EN                              00000007
G1POL                             00000000
G2EN                              00000007
G2POL                             00000001
G3EN                              00000007
G3POL                             00000002
G4D1N                             00000000
G4D1T                             00000001
G4D2N                             00000002
G4D2T                             00000003
G4D3N                             00000004
G4D3T                             00000005
G4D4N                             00000006
G4D4T                             00000007
G4POL                             00000003
GATE                              STATES, 0
GATE_CHANGED                      CHANGES, 0
GCEN                              00000007
GE                                00000007
GGO_NOT_DONE                      00000003
GIE                               00000007
GIE_STATE                         00000079
GO_ADCON0                         00000000
GO_NOT_DONE                       00000000
GO_SMT1CON1                       00000007
GO_SMT2CON1                       00000007
MPASM 5.73                   ENVGEN8Z209.ASM   5-7-2018  18:11:50         PAGE 66
DUAL ADSR

SYMBOL TABLE
  LABEL                             VALUE 

GPOL                              00000006
GSPM                              00000004
GSS0                              00000000
GSS1                              00000001
GSS2                              00000002
GSS3                              00000003
GSS4                              00000004
GTM                               00000005
GVAL                              00000002
GenerateEnvelope                  00000032
GetAttackOffset                   0000003A
GetDecayOffset                    0000003E
GetPunchOffset                    0000003C
GetReleaseOffset                  00000040
HADR0                             00000000
HADR1                             00000001
HADR10                            00000002
HADR11                            00000003
HADR12                            00000004
HADR13                            00000005
HADR14                            00000006
HADR15                            00000007
HADR2                             00000002
HADR3                             00000003
HADR4                             00000004
HADR5                             00000005
HADR6                             00000006
HADR7                             00000007
HADR8                             00000000
HADR9                             00000001
HFFRQ0                            00000000
HFFRQ1                            00000001
HFFRQ2                            00000002
HFOEN                             00000006
HFOR                              00000006
HFTUN0                            00000000
HFTUN1                            00000001
HFTUN2                            00000002
HFTUN3                            00000003
HFTUN4                            00000004
HFTUN5                            00000005
HYS                               00000001
I2C_DAT                           00000005
I2C_READ                          00000002
I2C_START                         00000003
I2C_STOP                          00000004
IDLEN                             00000007
IN                                00000005
INDF0                             00000000
INDF1                             00000001
INLVLA                            00000F3C
INLVLA0                           00000000
INLVLA1                           00000001
MPASM 5.73                   ENVGEN8Z209.ASM   5-7-2018  18:11:50         PAGE 67
DUAL ADSR

SYMBOL TABLE
  LABEL                             VALUE 

INLVLA2                           00000002
INLVLA3                           00000003
INLVLA4                           00000004
INLVLA5                           00000005
INLVLA6                           00000006
INLVLA7                           00000007
INLVLB                            00000F47
INLVLB0                           00000000
INLVLB1                           00000001
INLVLB2                           00000002
INLVLB3                           00000003
INLVLB4                           00000004
INLVLB5                           00000005
INLVLB6                           00000006
INLVLB7                           00000007
INLVLC                            00000F52
INLVLC0                           00000000
INLVLC1                           00000001
INLVLC2                           00000002
INLVLC3                           00000003
INLVLC4                           00000004
INLVLC5                           00000005
INLVLC6                           00000006
INLVLC7                           00000007
INLVLE                            00000F68
INLVLE3                           00000003
INPUT_X_HI                        00000020
INPUT_X_LO                        00000021
INPUT_Y_HI                        00000022
INPUT_Y_LO                        00000023
INTCON                            0000000B
INTE                              00000000
INTEDG                            00000000
INTF                              00000000
INTM                              00000003
INTN_CLC1CON                      00000003
INTN_CLC2CON                      00000003
INTN_CLC3CON                      00000003
INTN_CLC4CON                      00000003
INTN_CM1CON1                      00000000
INTN_CM2CON1                      00000000
INTN_ZCD1CON                      00000000
INTN_ZCDCON                       00000000
INTPPS                            00000E90
INTPPS0                           00000000
INTPPS1                           00000001
INTPPS2                           00000002
INTPPS3                           00000003
INTP_CLC1CON                      00000004
INTP_CLC2CON                      00000004
INTP_CLC3CON                      00000004
INTP_CLC4CON                      00000004
INTP_CM1CON1                      00000001
MPASM 5.73                   ENVGEN8Z209.ASM   5-7-2018  18:11:50         PAGE 68
DUAL ADSR

SYMBOL TABLE
  LABEL                             VALUE 

INTP_CM2CON1                      00000001
INTP_ZCD1CON                      00000001
INTP_ZCDCON                       00000001
INVALID                           00000004
IOCAF                             00000F3F
IOCAF0                            00000000
IOCAF1                            00000001
IOCAF2                            00000002
IOCAF3                            00000003
IOCAF4                            00000004
IOCAF5                            00000005
IOCAF6                            00000006
IOCAF7                            00000007
IOCAN                             00000F3E
IOCAN0                            00000000
IOCAN1                            00000001
IOCAN2                            00000002
IOCAN3                            00000003
IOCAN4                            00000004
IOCAN5                            00000005
IOCAN6                            00000006
IOCAN7                            00000007
IOCAP                             00000F3D
IOCAP0                            00000000
IOCAP1                            00000001
IOCAP2                            00000002
IOCAP3                            00000003
IOCAP4                            00000004
IOCAP5                            00000005
IOCAP6                            00000006
IOCAP7                            00000007
IOCBF                             00000F4A
IOCBF0                            00000000
IOCBF1                            00000001
IOCBF2                            00000002
IOCBF3                            00000003
IOCBF4                            00000004
IOCBF5                            00000005
IOCBF6                            00000006
IOCBF7                            00000007
IOCBN                             00000F49
IOCBN0                            00000000
IOCBN1                            00000001
IOCBN2                            00000002
IOCBN3                            00000003
IOCBN4                            00000004
IOCBN5                            00000005
IOCBN6                            00000006
IOCBN7                            00000007
IOCBP                             00000F48
IOCBP0                            00000000
IOCBP1                            00000001
IOCBP2                            00000002
MPASM 5.73                   ENVGEN8Z209.ASM   5-7-2018  18:11:50         PAGE 69
DUAL ADSR

SYMBOL TABLE
  LABEL                             VALUE 

IOCBP3                            00000003
IOCBP4                            00000004
IOCBP5                            00000005
IOCBP6                            00000006
IOCBP7                            00000007
IOCCF                             00000F55
IOCCF0                            00000000
IOCCF1                            00000001
IOCCF2                            00000002
IOCCF3                            00000003
IOCCF4                            00000004
IOCCF5                            00000005
IOCCF6                            00000006
IOCCF7                            00000007
IOCCN                             00000F54
IOCCN0                            00000000
IOCCN1                            00000001
IOCCN2                            00000002
IOCCN3                            00000003
IOCCN4                            00000004
IOCCN5                            00000005
IOCCN6                            00000006
IOCCN7                            00000007
IOCCP                             00000F53
IOCCP0                            00000000
IOCCP1                            00000001
IOCCP2                            00000002
IOCCP3                            00000003
IOCCP4                            00000004
IOCCP5                            00000005
IOCCP6                            00000006
IOCCP7                            00000007
IOCEF                             00000F6B
IOCEF3                            00000003
IOCEN                             00000F6A
IOCEN3                            00000003
IOCEP                             00000F69
IOCEP3                            00000003
IOCIE                             00000004
IOCIF                             00000004
IOCMD                             00000000
IncrementPhase                    00000041
Init_Osc                          00000A53
Init_Ports                        00000A04
Init_SPI2                         00000A4B
InterruptEnter                    00000004
InterruptExit                     000000EE
LADR0                             00000000
LADR1                             00000001
LADR10                            00000002
LADR11                            00000003
LADR12                            00000004
LADR13                            00000005
MPASM 5.73                   ENVGEN8Z209.ASM   5-7-2018  18:11:50         PAGE 70
DUAL ADSR

SYMBOL TABLE
  LABEL                             VALUE 

LADR14                            00000006
LADR15                            00000007
LADR2                             00000002
LADR3                             00000003
LADR4                             00000004
LADR5                             00000005
LADR6                             00000006
LADR7                             00000007
LADR8                             00000000
LADR9                             00000001
LATA                              00000016
LATA0                             00000000
LATA1                             00000001
LATA2                             00000002
LATA3                             00000003
LATA4                             00000004
LATA5                             00000005
LATA6                             00000006
LATA7                             00000007
LATB                              00000017
LATB0                             00000000
LATB1                             00000001
LATB2                             00000002
LATB3                             00000003
LATB4                             00000004
LATB5                             00000005
LATB6                             00000006
LATB7                             00000007
LATC                              00000018
LATC0                             00000000
LATC1                             00000001
LATC2                             00000002
LATC3                             00000003
LATC4                             00000004
LATC5                             00000005
LATC6                             00000006
LATC7                             00000007
LC1D1S0                           00000000
LC1D1S1                           00000001
LC1D1S2                           00000002
LC1D1S3                           00000003
LC1D1S4                           00000004
LC1D1S5                           00000005
LC1D1S6                           00000006
LC1D1S7                           00000007
LC1D2S0                           00000000
LC1D2S1                           00000001
LC1D2S2                           00000002
LC1D2S3                           00000003
LC1D2S4                           00000004
LC1D2S5                           00000005
LC1D2S6                           00000006
LC1D2S7                           00000007
MPASM 5.73                   ENVGEN8Z209.ASM   5-7-2018  18:11:50         PAGE 71
DUAL ADSR

SYMBOL TABLE
  LABEL                             VALUE 

LC1D3S0                           00000000
LC1D3S1                           00000001
LC1D3S2                           00000002
LC1D3S3                           00000003
LC1D3S4                           00000004
LC1D3S5                           00000005
LC1D3S6                           00000006
LC1D3S7                           00000007
LC1D4S0                           00000000
LC1D4S1                           00000001
LC1D4S2                           00000002
LC1D4S3                           00000003
LC1D4S4                           00000004
LC1D4S5                           00000005
LC1D4S6                           00000006
LC1D4S7                           00000007
LC1EN                             00000007
LC1G1D1N                          00000000
LC1G1D1T                          00000001
LC1G1D2N                          00000002
LC1G1D2T                          00000003
LC1G1D3N                          00000004
LC1G1D3T                          00000005
LC1G1D4N                          00000006
LC1G1D4T                          00000007
LC1G1POL                          00000000
LC1G2D1N                          00000000
LC1G2D1T                          00000001
LC1G2D2N                          00000002
LC1G2D2T                          00000003
LC1G2D3N                          00000004
LC1G2D3T                          00000005
LC1G2D4N                          00000006
LC1G2D4T                          00000007
LC1G2POL                          00000001
LC1G3D1N                          00000000
LC1G3D1T                          00000001
LC1G3D2N                          00000002
LC1G3D2T                          00000003
LC1G3D3N                          00000004
LC1G3D3T                          00000005
LC1G3D4N                          00000006
LC1G3D4T                          00000007
LC1G3POL                          00000002
LC1G4D1N                          00000000
LC1G4D1T                          00000001
LC1G4D2N                          00000002
LC1G4D2T                          00000003
LC1G4D3N                          00000004
LC1G4D3T                          00000005
LC1G4D4N                          00000006
LC1G4D4T                          00000007
LC1G4POL                          00000003
MPASM 5.73                   ENVGEN8Z209.ASM   5-7-2018  18:11:50         PAGE 72
DUAL ADSR

SYMBOL TABLE
  LABEL                             VALUE 

LC1INTN                           00000003
LC1INTP                           00000004
LC1MODE0                          00000000
LC1MODE1                          00000001
LC1MODE2                          00000002
LC1OUT                            00000005
LC1POL                            00000007
LC2D1S0                           00000000
LC2D1S1                           00000001
LC2D1S2                           00000002
LC2D1S3                           00000003
LC2D1S4                           00000004
LC2D1S5                           00000005
LC2D1S6                           00000006
LC2D1S7                           00000007
LC2D2S0                           00000000
LC2D2S1                           00000001
LC2D2S2                           00000002
LC2D2S3                           00000003
LC2D2S4                           00000004
LC2D2S5                           00000005
LC2D2S6                           00000006
LC2D2S7                           00000007
LC2D3S0                           00000000
LC2D3S1                           00000001
LC2D3S2                           00000002
LC2D3S3                           00000003
LC2D3S4                           00000004
LC2D3S5                           00000005
LC2D3S6                           00000006
LC2D3S7                           00000007
LC2D4S0                           00000000
LC2D4S1                           00000001
LC2D4S2                           00000002
LC2D4S3                           00000003
LC2D4S4                           00000004
LC2D4S5                           00000005
LC2D4S6                           00000006
LC2D4S7                           00000007
LC2EN                             00000007
LC2G1D1N                          00000000
LC2G1D1T                          00000001
LC2G1D2N                          00000002
LC2G1D2T                          00000003
LC2G1D3N                          00000004
LC2G1D3T                          00000005
LC2G1D4N                          00000006
LC2G1D4T                          00000007
LC2G1POL                          00000000
LC2G2D1N                          00000000
LC2G2D1T                          00000001
LC2G2D2N                          00000002
LC2G2D2T                          00000003
MPASM 5.73                   ENVGEN8Z209.ASM   5-7-2018  18:11:50         PAGE 73
DUAL ADSR

SYMBOL TABLE
  LABEL                             VALUE 

LC2G2D3N                          00000004
LC2G2D3T                          00000005
LC2G2D4N                          00000006
LC2G2D4T                          00000007
LC2G2POL                          00000001
LC2G3D1N                          00000000
LC2G3D1T                          00000001
LC2G3D2N                          00000002
LC2G3D2T                          00000003
LC2G3D3N                          00000004
LC2G3D3T                          00000005
LC2G3D4N                          00000006
LC2G3D4T                          00000007
LC2G3POL                          00000002
LC2G4D1N                          00000000
LC2G4D1T                          00000001
LC2G4D2N                          00000002
LC2G4D2T                          00000003
LC2G4D3N                          00000004
LC2G4D3T                          00000005
LC2G4D4N                          00000006
LC2G4D4T                          00000007
LC2G4POL                          00000003
LC2INTN                           00000003
LC2INTP                           00000004
LC2MODE0                          00000000
LC2MODE1                          00000001
LC2MODE2                          00000002
LC2OUT                            00000005
LC2POL                            00000007
LC3D1S0                           00000000
LC3D1S1                           00000001
LC3D1S2                           00000002
LC3D1S3                           00000003
LC3D1S4                           00000004
LC3D1S5                           00000005
LC3D1S6                           00000006
LC3D1S7                           00000007
LC3D2S0                           00000000
LC3D2S1                           00000001
LC3D2S2                           00000002
LC3D2S3                           00000003
LC3D2S4                           00000004
LC3D2S5                           00000005
LC3D2S6                           00000006
LC3D2S7                           00000007
LC3D3S0                           00000000
LC3D3S1                           00000001
LC3D3S2                           00000002
LC3D3S3                           00000003
LC3D3S4                           00000004
LC3D3S5                           00000005
LC3D3S6                           00000006
MPASM 5.73                   ENVGEN8Z209.ASM   5-7-2018  18:11:50         PAGE 74
DUAL ADSR

SYMBOL TABLE
  LABEL                             VALUE 

LC3D3S7                           00000007
LC3D4S0                           00000000
LC3D4S1                           00000001
LC3D4S2                           00000002
LC3D4S3                           00000003
LC3D4S4                           00000004
LC3D4S5                           00000005
LC3D4S6                           00000006
LC3D4S7                           00000007
LC3EN                             00000007
LC3G1D1N                          00000000
LC3G1D1T                          00000001
LC3G1D2N                          00000002
LC3G1D2T                          00000003
LC3G1D3N                          00000004
LC3G1D3T                          00000005
LC3G1D4N                          00000006
LC3G1D4T                          00000007
LC3G1POL                          00000000
LC3G2D1N                          00000000
LC3G2D1T                          00000001
LC3G2D2N                          00000002
LC3G2D2T                          00000003
LC3G2D3N                          00000004
LC3G2D3T                          00000005
LC3G2D4N                          00000006
LC3G2D4T                          00000007
LC3G2POL                          00000001
LC3G3D1N                          00000000
LC3G3D1T                          00000001
LC3G3D2N                          00000002
LC3G3D2T                          00000003
LC3G3D3N                          00000004
LC3G3D3T                          00000005
LC3G3D4N                          00000006
LC3G3D4T                          00000007
LC3G3POL                          00000002
LC3G4D1N                          00000000
LC3G4D1T                          00000001
LC3G4D2N                          00000002
LC3G4D2T                          00000003
LC3G4D3N                          00000004
LC3G4D3T                          00000005
LC3G4D4N                          00000006
LC3G4D4T                          00000007
LC3G4POL                          00000003
LC3INTN                           00000003
LC3INTP                           00000004
LC3MODE0                          00000000
LC3MODE1                          00000001
LC3MODE2                          00000002
LC3OUT                            00000005
LC3POL                            00000007
MPASM 5.73                   ENVGEN8Z209.ASM   5-7-2018  18:11:50         PAGE 75
DUAL ADSR

SYMBOL TABLE
  LABEL                             VALUE 

LC4D1S0                           00000000
LC4D1S1                           00000001
LC4D1S2                           00000002
LC4D1S3                           00000003
LC4D1S4                           00000004
LC4D1S5                           00000005
LC4D1S6                           00000006
LC4D1S7                           00000007
LC4D2S0                           00000000
LC4D2S1                           00000001
LC4D2S2                           00000002
LC4D2S3                           00000003
LC4D2S4                           00000004
LC4D2S5                           00000005
LC4D2S6                           00000006
LC4D2S7                           00000007
LC4D3S0                           00000000
LC4D3S1                           00000001
LC4D3S2                           00000002
LC4D3S3                           00000003
LC4D3S4                           00000004
LC4D3S5                           00000005
LC4D3S6                           00000006
LC4D3S7                           00000007
LC4D4S0                           00000000
LC4D4S1                           00000001
LC4D4S2                           00000002
LC4D4S3                           00000003
LC4D4S4                           00000004
LC4D4S5                           00000005
LC4D4S6                           00000006
LC4D4S7                           00000007
LC4EN                             00000007
LC4G1D1N                          00000000
LC4G1D1T                          00000001
LC4G1D2N                          00000002
LC4G1D2T                          00000003
LC4G1D3N                          00000004
LC4G1D3T                          00000005
LC4G1D4N                          00000006
LC4G1D4T                          00000007
LC4G1POL                          00000000
LC4G2D1N                          00000000
LC4G2D1T                          00000001
LC4G2D2N                          00000002
LC4G2D2T                          00000003
LC4G2D3N                          00000004
LC4G2D3T                          00000005
LC4G2D4N                          00000006
LC4G2D4T                          00000007
LC4G2POL                          00000001
LC4G3D1N                          00000000
LC4G3D1T                          00000001
MPASM 5.73                   ENVGEN8Z209.ASM   5-7-2018  18:11:50         PAGE 76
DUAL ADSR

SYMBOL TABLE
  LABEL                             VALUE 

LC4G3D2N                          00000002
LC4G3D2T                          00000003
LC4G3D3N                          00000004
LC4G3D3T                          00000005
LC4G3D4N                          00000006
LC4G3D4T                          00000007
LC4G3POL                          00000002
LC4G4D1N                          00000000
LC4G4D1T                          00000001
LC4G4D2N                          00000002
LC4G4D2T                          00000003
LC4G4D3N                          00000004
LC4G4D3T                          00000005
LC4G4D4N                          00000006
LC4G4D4T                          00000007
LC4G4POL                          00000003
LC4INTN                           00000003
LC4INTP                           00000004
LC4MODE0                          00000000
LC4MODE1                          00000001
LC4MODE2                          00000002
LC4OUT                            00000005
LC4POL                            00000007
LD                                00000006
LEDLAST                           0x07
LFOEN                             00000004
LFOR                              00000004
LFO_MODE                          FLAGS, 0
LOOPING                           FLAGS, 1
LSAC0                             00000002
LSAC1                             00000003
LSBD0                             00000004
LSBD1                             00000005
LWLO                              00000005
LookupAndInterp                   0000014C
LoopToAttack                      0000006C
LoopingEnvelopeOrLFOMode          0000005A
MC1OUT                            00000000
MC2OUT                            00000001
MDBIT                             00000000
MDCARH                            0000089B
MDCARHPPS                         00000EB9
MDCARHPPS0                        00000000
MDCARHPPS1                        00000001
MDCARHPPS2                        00000002
MDCARHPPS3                        00000003
MDCARHPPS4                        00000004
MDCARL                            0000089A
MDCARLPPS                         00000EB8
MDCARLPPS0                        00000000
MDCARLPPS1                        00000001
MDCARLPPS2                        00000002
MDCARLPPS3                        00000003
MPASM 5.73                   ENVGEN8Z209.ASM   5-7-2018  18:11:50         PAGE 77
DUAL ADSR

SYMBOL TABLE
  LABEL                             VALUE 

MDCARLPPS4                        00000004
MDCH0                             00000000
MDCH1                             00000001
MDCH2                             00000002
MDCH3                             00000003
MDCHPOL                           00000005
MDCHSYNC                          00000004
MDCL0                             00000000
MDCL1                             00000001
MDCL2                             00000002
MDCL3                             00000003
MDCLPOL                           00000001
MDCLSYNC                          00000000
MDCON0                            00000897
MDCON1                            00000898
MDEN                              00000007
MDMS0                             00000000
MDMS1                             00000001
MDMS2                             00000002
MDMS3                             00000003
MDMS4                             00000004
MDOPOL                            00000004
MDOUT                             00000005
MDSRC                             00000899
MDSRCPPS                          00000EBA
MDSRCPPS0                         00000000
MDSRCPPS1                         00000001
MDSRCPPS2                         00000002
MDSRCPPS3                         00000003
MDSRCPPS4                         00000004
MFOEN                             00000005
MFOR                              00000005
MLC1OUT                           00000000
MLC2OUT                           00000001
MLC3OUT                           00000002
MLC4OUT                           00000003
MODE0                             00000000
MODE1                             00000001
MODE2                             00000002
MODE3                             00000003
MODE4                             00000004
MODE_CV                           00000030
MSK0                              00000000
MSK1                              00000001
MSK2                              00000002
MSK3                              00000003
MSK4                              00000004
MSK5                              00000005
MSK6                              00000006
MSK7                              00000007
MSSP1MD                           00000004
MSSP2MD                           00000005
MULT_IN_HI                        00000026
MPASM 5.73                   ENVGEN8Z209.ASM   5-7-2018  18:11:50         PAGE 78
DUAL ADSR

SYMBOL TABLE
  LABEL                             VALUE 

MULT_IN_LO                        00000027
MULT_OUT_HI                       00000028
MULT_OUT_LO                       00000029
Main                              00000182
MainLoop                          000001C1
ModeCV                            00000209
MultBit0                          000000F1
MultBit1                          000000F8
MultBit2                          00000101
MultBit3                          0000010A
MultBit4                          00000113
MultBit5                          0000011C
MultBit6                          00000125
MultBit7                          0000012E
MultBit8                          00000137
MultBit9                          00000140
MultEnd                           00000149
Multiply10x10                     000000EF
N1CKS0                            00000000
N1CKS1                            00000001
N1CKS2                            00000002
N1EN                              00000007
N1OUT                             00000005
N1PFM                             00000000
N1POL                             00000004
N1PWS0                            00000005
N1PWS1                            00000006
N1PWS2                            00000007
NCH0                              00000000
NCH1                              00000001
NCH2                              00000002
NCO1ACC                           0000058C
NCO1ACC0                          00000000
NCO1ACC1                          00000001
NCO1ACC10                         00000002
NCO1ACC11                         00000003
NCO1ACC12                         00000004
NCO1ACC13                         00000005
NCO1ACC14                         00000006
NCO1ACC15                         00000007
NCO1ACC16                         00000000
NCO1ACC17                         00000001
NCO1ACC18                         00000002
NCO1ACC19                         00000003
NCO1ACC2                          00000002
NCO1ACC3                          00000003
NCO1ACC4                          00000004
NCO1ACC5                          00000005
NCO1ACC6                          00000006
NCO1ACC7                          00000007
NCO1ACC8                          00000000
NCO1ACC9                          00000001
NCO1ACCH                          0000058D
MPASM 5.73                   ENVGEN8Z209.ASM   5-7-2018  18:11:50         PAGE 79
DUAL ADSR

SYMBOL TABLE
  LABEL                             VALUE 

NCO1ACCL                          0000058C
NCO1ACCU                          0000058E
NCO1CLK                           00000593
NCO1CON                           00000592
NCO1IE                            00000004
NCO1IF                            00000004
NCO1INC                           0000058F
NCO1INC0                          00000000
NCO1INC1                          00000001
NCO1INC10                         00000002
NCO1INC11                         00000003
NCO1INC12                         00000004
NCO1INC13                         00000005
NCO1INC14                         00000006
NCO1INC15                         00000007
NCO1INC16                         00000000
NCO1INC17                         00000001
NCO1INC18                         00000002
NCO1INC19                         00000003
NCO1INC2                          00000002
NCO1INC3                          00000003
NCO1INC4                          00000004
NCO1INC5                          00000005
NCO1INC6                          00000006
NCO1INC7                          00000007
NCO1INC8                          00000000
NCO1INC9                          00000001
NCO1INCH                          00000590
NCO1INCL                          0000058F
NCO1INCU                          00000591
NCO1MD                            00000007
NCOIE                             00000004
NCOIF                             00000004
NCOMD                             00000007
NDIV0                             00000000
NDIV1                             00000001
NDIV2                             00000002
NDIV3                             00000003
NOSC0                             00000004
NOSC1                             00000005
NOSC2                             00000006
NOSCR                             00000003
NOT_A                             00000005
NOT_ADDRESS                       00000005
NOT_BOR                           00000000
NOT_CS                            PORTB,5
NOT_DONE                          00000000
NOT_PD                            00000003
NOT_POR                           00000001
NOT_RI                            00000002
NOT_RMCLR                         00000003
NOT_RWDT                          00000004
NOT_SYNC                          00000002
MPASM 5.73                   ENVGEN8Z209.ASM   5-7-2018  18:11:50         PAGE 80
DUAL ADSR

SYMBOL TABLE
  LABEL                             VALUE 

NOT_T1SYNC                        00000002
NOT_T3SYNC                        00000002
NOT_T5SYNC                        00000002
NOT_TO                            00000004
NOT_W                             00000002
NOT_WDTWV                         00000005
NOT_WRITE                         00000002
NSS                               00000000
NVMADR0                           00000000
NVMADR1                           00000001
NVMADR10                          00000002
NVMADR11                          00000003
NVMADR12                          00000004
NVMADR13                          00000005
NVMADR14                          00000006
NVMADR2                           00000002
NVMADR3                           00000003
NVMADR4                           00000004
NVMADR5                           00000005
NVMADR6                           00000006
NVMADR7                           00000007
NVMADR8                           00000000
NVMADR9                           00000001
NVMADRH                           0000081B
NVMADRL                           0000081A
NVMCON1                           0000081E
NVMCON2                           0000081F
NVMDAT0                           00000000
NVMDAT1                           00000001
NVMDAT10                          00000002
NVMDAT11                          00000003
NVMDAT12                          00000004
NVMDAT13                          00000005
NVMDAT2                           00000002
NVMDAT3                           00000003
NVMDAT4                           00000004
NVMDAT5                           00000005
NVMDAT6                           00000006
NVMDAT7                           00000007
NVMDAT8                           00000000
NVMDAT9                           00000001
NVMDATH                           0000081D
NVMDATL                           0000081C
NVMIE                             00000005
NVMIF                             00000005
NVMMD                             00000002
NVMREGS                           00000006
NextStage                         0000004B
NormalEnvelope                    00000073
ODCA0                             00000000
ODCA1                             00000001
ODCA2                             00000002
ODCA3                             00000003
MPASM 5.73                   ENVGEN8Z209.ASM   5-7-2018  18:11:50         PAGE 81
DUAL ADSR

SYMBOL TABLE
  LABEL                             VALUE 

ODCA4                             00000004
ODCA5                             00000005
ODCA6                             00000006
ODCA7                             00000007
ODCB0                             00000000
ODCB1                             00000001
ODCB2                             00000002
ODCB3                             00000003
ODCB4                             00000004
ODCB5                             00000005
ODCB6                             00000006
ODCB7                             00000007
ODCC0                             00000000
ODCC1                             00000001
ODCC2                             00000002
ODCC3                             00000003
ODCC4                             00000004
ODCC5                             00000005
ODCC6                             00000006
ODCC7                             00000007
ODCONA                            00000F3A
ODCONB                            00000F45
ODCONC                            00000F50
OE                                00000006
OE1                               00000005
OE2                               00000004
OERR                              00000001
ON_CM1CON0                        00000007
ON_CM2CON0                        00000007
ON_T1CON                          00000000
ON_T2CON                          00000007
ON_T3CON                          00000000
ON_T4CON                          00000007
ON_T5CON                          00000000
ON_T6CON                          00000007
ORDY                              00000004
OSCCON1                           0000088D
OSCCON2                           0000088E
OSCCON3                           0000088F
OSCEN                             00000891
OSCFRQ                            00000893
OSCSTAT                           00000890
OSCTUNE                           00000892
OSFIE                             00000007
OSFIF                             00000007
OUTPS0                            00000000
OUTPS1                            00000001
OUTPS2                            00000002
OUTPS3                            00000003
OUTPUT_HI                         00000076
OUTPUT_LO                         00000077
OUT_CCP1CON                       00000005
OUT_CCP2CON                       00000005
MPASM 5.73                   ENVGEN8Z209.ASM   5-7-2018  18:11:50         PAGE 82
DUAL ADSR

SYMBOL TABLE
  LABEL                             VALUE 

OUT_CCP3CON                       00000005
OUT_CCP4CON                       00000005
OUT_CCP5CON                       00000005
OUT_CLC1CON                       00000005
OUT_CLC2CON                       00000005
OUT_CLC3CON                       00000005
OUT_CLC4CON                       00000005
OUT_CM1CON0                       00000006
OUT_CM2CON0                       00000006
OUT_PWM6CON                       00000005
OUT_PWM7CON                       00000005
OUT_ZCD1CON                       00000005
OUT_ZCDCON                        00000005
OVRA                              00000004
OVRB                              00000005
OVRC                              00000006
OVRD                              00000007
P                                 00000004
P6TSEL0                           00000002
P6TSEL1                           00000003
P7TSEL0                           00000004
P7TSEL1                           00000005
PCH0                              00000000
PCH1                              00000001
PCH2                              00000002
PCIE                              00000006
PCL                               00000002
PCLATH                            0000000A
PCLATH_SHAD                       00000FE7
PCON0                             00000813
PEIE                              00000006
PEN                               00000002
PHASE_HI                          00000035
PHASE_LO                          00000037
PHASE_MID                         00000036
PIE0                              00000716
PIE1                              00000717
PIE2                              00000718
PIE3                              00000719
PIE4                              0000071A
PIE5                              0000071B
PIE6                              0000071C
PIE7                              0000071D
PIE8                              0000071E
PIR0                              0000070C
PIR1                              0000070D
PIR2                              0000070E
PIR3                              0000070F
PIR4                              00000710
PIR5                              00000711
PIR6                              00000712
PIR7                              00000713
PIR8                              00000714
MPASM 5.73                   ENVGEN8Z209.ASM   5-7-2018  18:11:50         PAGE 83
DUAL ADSR

SYMBOL TABLE
  LABEL                             VALUE 

PLEN0                             00000000
PLEN1                             00000001
PLEN2                             00000002
PLEN3                             00000003
PLLR                              00000000
PMD0                              00000796
PMD1                              00000797
PMD2                              00000798
PMD3                              00000799
PMD4                              0000079A
PMD5                              0000079B
POLA                              00000000
POLB                              00000001
POLC                              00000002
POLD                              00000003
POL_CLC1POL                       00000007
POL_CLC2POL                       00000007
POL_CLC3POL                       00000007
POL_CLC4POL                       00000007
POL_CM1CON0                       00000004
POL_CM2CON0                       00000004
POL_PWM6CON                       00000004
POL_PWM7CON                       00000004
POL_ZCD1CON                       00000004
POL_ZCDCON                        00000004
PORTA                             0000000C
PORTB                             0000000D
PORTC                             0000000E
PORTE                             00000010
PPSLOCK                           00000E8F
PPSLOCKED                         00000000
PR0                               0000001D
PR1                               0000020F
PR10                              00000002
PR11                              00000003
PR12                              00000004
PR13                              00000005
PR14                              00000006
PR15                              00000007
PR16                              00000000
PR17                              00000001
PR18                              00000002
PR19                              00000003
PR2                               0000028D
PR20                              00000004
PR21                              00000005
PR22                              00000006
PR23                              00000007
PR3                               00000215
PR4                               00000293
PR5                               0000021B
PR6                               00000299
PR7                               00000007
MPASM 5.73                   ENVGEN8Z209.ASM   5-7-2018  18:11:50         PAGE 84
DUAL ADSR

SYMBOL TABLE
  LABEL                             VALUE 

PR8                               00000000
PR9                               00000001
PS0                               00000000
PS1                               00000001
PSCNT0                            00000000
PSCNT1                            00000001
PSCNT10                           00000002
PSCNT11                           00000003
PSCNT12                           00000004
PSCNT13                           00000005
PSCNT14                           00000006
PSCNT15                           00000007
PSCNT16                           00000000
PSCNT17                           00000001
PSCNT2                            00000002
PSCNT3                            00000003
PSCNT4                            00000004
PSCNT5                            00000005
PSCNT6                            00000006
PSCNT7                            00000007
PSCNT8                            00000000
PSCNT9                            00000001
PSS0                              00000002
PSS1                              00000003
PSYNC                             00000007
PUNCH_INC_HI                      0000003D
PUNCH_INC_LO                      0000003B
PUNCH_INC_MID                     0000003C
PWM6CON                           0000038E
PWM6DC0                           00000006
PWM6DC1                           00000007
PWM6DC2                           00000000
PWM6DC3                           00000001
PWM6DC4                           00000002
PWM6DC5                           00000003
PWM6DC6                           00000004
PWM6DC7                           00000005
PWM6DC8                           00000006
PWM6DC9                           00000007
PWM6DCH                           0000038D
PWM6DCL                           0000038C
PWM6EN                            00000007
PWM6MD                            00000005
PWM6OE                            00000006
PWM6OUT                           00000005
PWM6POL                           00000004
PWM7CON                           00000392
PWM7DC0                           00000006
PWM7DC1                           00000007
PWM7DC2                           00000000
PWM7DC3                           00000001
PWM7DC4                           00000002
PWM7DC5                           00000003
MPASM 5.73                   ENVGEN8Z209.ASM   5-7-2018  18:11:50         PAGE 85
DUAL ADSR

SYMBOL TABLE
  LABEL                             VALUE 

PWM7DC6                           00000004
PWM7DC7                           00000005
PWM7DC8                           00000006
PWM7DC9                           00000007
PWM7DCH                           00000391
PWM7DCL                           00000390
PWM7EN                            00000007
PWM7MD                            00000006
PWM7OE                            00000006
PWM7OUT                           00000005
PWM7POL                           00000004
PWMPW0                            00000006
PWMPW1                            00000007
PWMPW2                            00000000
PWMPW3                            00000001
PWMPW4                            00000002
PWMPW5                            00000003
PWMPW6                            00000004
PWMPW7                            00000005
PWMPW8                            00000006
PWMPW9                            00000007
Punch                             0000009C
RA0                               00000000
RA0PPS                            00000F10
RA0PPS0                           00000000
RA0PPS1                           00000001
RA0PPS2                           00000002
RA0PPS3                           00000003
RA0PPS4                           00000004
RA0PPS5                           00000005
RA1                               00000001
RA1PPS                            00000F11
RA1PPS0                           00000000
RA1PPS1                           00000001
RA1PPS2                           00000002
RA1PPS3                           00000003
RA1PPS4                           00000004
RA1PPS5                           00000005
RA2                               00000002
RA2PPS                            00000F12
RA2PPS0                           00000000
RA2PPS1                           00000001
RA2PPS2                           00000002
RA2PPS3                           00000003
RA2PPS4                           00000004
RA2PPS5                           00000005
RA3                               00000003
RA3PPS                            00000F13
RA3PPS0                           00000000
RA3PPS1                           00000001
RA3PPS2                           00000002
RA3PPS3                           00000003
RA3PPS4                           00000004
MPASM 5.73                   ENVGEN8Z209.ASM   5-7-2018  18:11:50         PAGE 86
DUAL ADSR

SYMBOL TABLE
  LABEL                             VALUE 

RA3PPS5                           00000005
RA4                               00000004
RA4PPS                            00000F14
RA4PPS0                           00000000
RA4PPS1                           00000001
RA4PPS2                           00000002
RA4PPS3                           00000003
RA4PPS4                           00000004
RA4PPS5                           00000005
RA5                               00000005
RA5PPS                            00000F15
RA5PPS0                           00000000
RA5PPS1                           00000001
RA5PPS2                           00000002
RA5PPS3                           00000003
RA5PPS4                           00000004
RA5PPS5                           00000005
RA6                               00000006
RA6PPS                            00000F16
RA6PPS0                           00000000
RA6PPS1                           00000001
RA6PPS2                           00000002
RA6PPS3                           00000003
RA6PPS4                           00000004
RA6PPS5                           00000005
RA7                               00000007
RA7PPS                            00000F17
RA7PPS0                           00000000
RA7PPS1                           00000001
RA7PPS2                           00000002
RA7PPS3                           00000003
RA7PPS4                           00000004
RA7PPS5                           00000005
RB0                               00000000
RB0PPS                            00000F18
RB0PPS0                           00000000
RB0PPS1                           00000001
RB0PPS2                           00000002
RB0PPS3                           00000003
RB0PPS4                           00000004
RB0PPS5                           00000005
RB1                               00000001
RB1PPS                            00000F19
RB1PPS0                           00000000
RB1PPS1                           00000001
RB1PPS2                           00000002
RB1PPS3                           00000003
RB1PPS4                           00000004
RB1PPS5                           00000005
RB2                               00000002
RB2PPS                            00000F1A
RB2PPS0                           00000000
RB2PPS1                           00000001
MPASM 5.73                   ENVGEN8Z209.ASM   5-7-2018  18:11:50         PAGE 87
DUAL ADSR

SYMBOL TABLE
  LABEL                             VALUE 

RB2PPS2                           00000002
RB2PPS3                           00000003
RB2PPS4                           00000004
RB2PPS5                           00000005
RB3                               00000003
RB3PPS                            00000F1B
RB3PPS0                           00000000
RB3PPS1                           00000001
RB3PPS2                           00000002
RB3PPS3                           00000003
RB3PPS4                           00000004
RB3PPS5                           00000005
RB4                               00000004
RB4PPS                            00000F1C
RB4PPS0                           00000000
RB4PPS1                           00000001
RB4PPS2                           00000002
RB4PPS3                           00000003
RB4PPS4                           00000004
RB4PPS5                           00000005
RB5                               00000005
RB5PPS                            00000F1D
RB5PPS0                           00000000
RB5PPS1                           00000001
RB5PPS2                           00000002
RB5PPS3                           00000003
RB5PPS4                           00000004
RB5PPS5                           00000005
RB6                               00000006
RB6PPS                            00000F1E
RB6PPS0                           00000000
RB6PPS1                           00000001
RB6PPS2                           00000002
RB6PPS3                           00000003
RB6PPS4                           00000004
RB6PPS5                           00000005
RB7                               00000007
RB7PPS                            00000F1F
RB7PPS0                           00000000
RB7PPS1                           00000001
RB7PPS2                           00000002
RB7PPS3                           00000003
RB7PPS4                           00000004
RB7PPS5                           00000005
RC0                               00000000
RC0PPS                            00000F20
RC0PPS0                           00000000
RC0PPS1                           00000001
RC0PPS2                           00000002
RC0PPS3                           00000003
RC0PPS4                           00000004
RC0PPS5                           00000005
RC1                               00000001
MPASM 5.73                   ENVGEN8Z209.ASM   5-7-2018  18:11:50         PAGE 88
DUAL ADSR

SYMBOL TABLE
  LABEL                             VALUE 

RC1PPS                            00000F21
RC1PPS0                           00000000
RC1PPS1                           00000001
RC1PPS2                           00000002
RC1PPS3                           00000003
RC1PPS4                           00000004
RC1PPS5                           00000005
RC1REG                            00000119
RC1STA                            0000011D
RC2                               00000002
RC2PPS                            00000F22
RC2PPS0                           00000000
RC2PPS1                           00000001
RC2PPS2                           00000002
RC2PPS3                           00000003
RC2PPS4                           00000004
RC2PPS5                           00000005
RC3                               00000003
RC3PPS                            00000F23
RC3PPS0                           00000000
RC3PPS1                           00000001
RC3PPS2                           00000002
RC3PPS3                           00000003
RC3PPS4                           00000004
RC3PPS5                           00000005
RC4                               00000004
RC4PPS                            00000F24
RC4PPS0                           00000000
RC4PPS1                           00000001
RC4PPS2                           00000002
RC4PPS3                           00000003
RC4PPS4                           00000004
RC4PPS5                           00000005
RC5                               00000005
RC5PPS                            00000F25
RC5PPS0                           00000000
RC5PPS1                           00000001
RC5PPS2                           00000002
RC5PPS3                           00000003
RC5PPS4                           00000004
RC5PPS5                           00000005
RC6                               00000006
RC6PPS                            00000F26
RC6PPS0                           00000000
RC6PPS1                           00000001
RC6PPS2                           00000002
RC6PPS3                           00000003
RC6PPS4                           00000004
RC6PPS5                           00000005
RC7                               00000007
RC7PPS                            00000F27
RC7PPS0                           00000000
RC7PPS1                           00000001
MPASM 5.73                   ENVGEN8Z209.ASM   5-7-2018  18:11:50         PAGE 89
DUAL ADSR

SYMBOL TABLE
  LABEL                             VALUE 

RC7PPS2                           00000002
RC7PPS3                           00000003
RC7PPS4                           00000004
RC7PPS5                           00000005
RCEN                              00000003
RCIDL                             00000006
RCIE                              00000005
RCIF                              00000005
RCREG                             00000119
RCREG1                            00000119
RCSTA                             0000011D
RCSTA1                            0000011D
RD                                00000000
RD16                              00000001
RE3                               00000003
READ_WRITE                        00000002
RELEASE_CV                        0000002E
RELEASE_INC_HI                    00000043
RELEASE_INC_LO                    00000041
RELEASE_INC_MID                   00000042
REN                               00000006
REPEAT                            00000006
ROI                               00000005
RSEL0                             00000000
RSEL1                             00000001
RSEL2                             00000002
RSEL3                             00000003
RSEL4                             00000004
RSEN                              00000001
RST                               00000005
RX9                               00000006
RX9D                              00000000
RXPPS                             00000ECB
RXPPS0                            00000000
RXPPS1                            00000001
RXPPS2                            00000002
RXPPS3                            00000003
RXPPS4                            00000004
R_NOT_W                           00000002
R_W                               00000002
Release                           000000BC
ReleaseCV                         000001F1
ReleaseScaling                    000000CF
Reserved                          00000002
S                                 00000003
SAVETOF                           0x01
SAVETOW                           0x00
SBCDE                             00000002
SBOREN                            00000007
SCANBUSY                          00000005
SCANCON0                          00000410
SCANEN                            00000007
SCANGO                            00000006
MPASM 5.73                   ENVGEN8Z209.ASM   5-7-2018  18:11:50         PAGE 90
DUAL ADSR

SYMBOL TABLE
  LABEL                             VALUE 

SCANHADR0                         00000000
SCANHADR1                         00000001
SCANHADR10                        00000002
SCANHADR11                        00000003
SCANHADR12                        00000004
SCANHADR13                        00000005
SCANHADR14                        00000006
SCANHADR15                        00000007
SCANHADR2                         00000002
SCANHADR3                         00000003
SCANHADR4                         00000004
SCANHADR5                         00000005
SCANHADR6                         00000006
SCANHADR7                         00000007
SCANHADR8                         00000000
SCANHADR9                         00000001
SCANHADRH                         0000040F
SCANHADRL                         0000040E
SCANIE                            00000007
SCANIF                            00000007
SCANINTM                          00000003
SCANINVALID                       00000004
SCANLADR0                         00000000
SCANLADR1                         00000001
SCANLADR10                        00000002
SCANLADR11                        00000003
SCANLADR12                        00000004
SCANLADR13                        00000005
SCANLADR14                        00000006
SCANLADR15                        00000007
SCANLADR2                         00000002
SCANLADR3                         00000003
SCANLADR4                         00000004
SCANLADR5                         00000005
SCANLADR6                         00000006
SCANLADR7                         00000007
SCANLADR8                         00000000
SCANLADR9                         00000001
SCANLADRH                         0000040D
SCANLADRL                         0000040C
SCANMD                            00000003
SCANMODE0                         00000000
SCANMODE1                         00000001
SCANTRIG                          00000411
SCANTSEL0                         00000000
SCANTSEL1                         00000001
SCANTSEL2                         00000002
SCANTSEL3                         00000003
SCIE                              00000005
SCKP                              00000004
SDAHT                             00000003
SEN                               00000000
SENDB                             00000003
MPASM 5.73                   ENVGEN8Z209.ASM   5-7-2018  18:11:50         PAGE 91
DUAL ADSR

SYMBOL TABLE
  LABEL                             VALUE 

SHFT0                             00000000
SHFT1                             00000001
SHFT10                            00000002
SHFT11                            00000003
SHFT12                            00000004
SHFT13                            00000005
SHFT14                            00000006
SHFT15                            00000007
SHFT2                             00000002
SHFT3                             00000003
SHFT4                             00000004
SHFT5                             00000005
SHFT6                             00000006
SHFT7                             00000007
SHFT8                             00000000
SHFT9                             00000001
SHIFTM                            00000001
SHUTDOWN                          00000007
SLRA0                             00000000
SLRA1                             00000001
SLRA2                             00000002
SLRA3                             00000003
SLRA4                             00000004
SLRA5                             00000005
SLRA6                             00000006
SLRA7                             00000007
SLRB0                             00000000
SLRB1                             00000001
SLRB2                             00000002
SLRB3                             00000003
SLRB4                             00000004
SLRB5                             00000005
SLRB6                             00000006
SLRB7                             00000007
SLRC0                             00000000
SLRC1                             00000001
SLRC2                             00000002
SLRC3                             00000003
SLRC4                             00000004
SLRC5                             00000005
SLRC6                             00000006
SLRC7                             00000007
SLRCONA                           00000F3B
SLRCONB                           00000F46
SLRCONC                           00000F51
SMP                               00000007
SMT1AS                            00000000
SMT1CLK                           0000049B
SMT1CON0                          00000498
SMT1CON1                          00000499
SMT1CPOL                          00000002
SMT1CPR                           0000048F
SMT1CPR0                          00000000
MPASM 5.73                   ENVGEN8Z209.ASM   5-7-2018  18:11:50         PAGE 92
DUAL ADSR

SYMBOL TABLE
  LABEL                             VALUE 

SMT1CPR1                          00000001
SMT1CPR10                         00000002
SMT1CPR11                         00000003
SMT1CPR12                         00000004
SMT1CPR13                         00000005
SMT1CPR14                         00000006
SMT1CPR15                         00000007
SMT1CPR16                         00000000
SMT1CPR17                         00000001
SMT1CPR18                         00000002
SMT1CPR19                         00000003
SMT1CPR2                          00000002
SMT1CPR20                         00000004
SMT1CPR21                         00000005
SMT1CPR22                         00000006
SMT1CPR23                         00000007
SMT1CPR3                          00000003
SMT1CPR4                          00000004
SMT1CPR5                          00000005
SMT1CPR6                          00000006
SMT1CPR7                          00000007
SMT1CPR8                          00000000
SMT1CPR9                          00000001
SMT1CPRH                          00000490
SMT1CPRL                          0000048F
SMT1CPRU                          00000491
SMT1CPRUP                         00000007
SMT1CPW                           00000492
SMT1CPW0                          00000000
SMT1CPW1                          00000001
SMT1CPW10                         00000002
SMT1CPW11                         00000003
SMT1CPW12                         00000004
SMT1CPW13                         00000005
SMT1CPW14                         00000006
SMT1CPW15                         00000007
SMT1CPW16                         00000000
SMT1CPW17                         00000001
SMT1CPW18                         00000002
SMT1CPW19                         00000003
SMT1CPW2                          00000002
SMT1CPW20                         00000004
SMT1CPW21                         00000005
SMT1CPW22                         00000006
SMT1CPW23                         00000007
SMT1CPW3                          00000003
SMT1CPW4                          00000004
SMT1CPW5                          00000005
SMT1CPW6                          00000006
SMT1CPW7                          00000007
SMT1CPW8                          00000000
SMT1CPW9                          00000001
SMT1CPWH                          00000493
MPASM 5.73                   ENVGEN8Z209.ASM   5-7-2018  18:11:50         PAGE 93
DUAL ADSR

SYMBOL TABLE
  LABEL                             VALUE 

SMT1CPWL                          00000492
SMT1CPWU                          00000494
SMT1CPWUP                         00000006
SMT1CSEL0                         00000000
SMT1CSEL1                         00000001
SMT1CSEL2                         00000002
SMT1EN                            00000007
SMT1GO                            00000007
SMT1IE                            00000000
SMT1IF                            00000000
SMT1MD                            00000006
SMT1PR                            00000495
SMT1PR0                           00000000
SMT1PR1                           00000001
SMT1PR10                          00000002
SMT1PR11                          00000003
SMT1PR12                          00000004
SMT1PR13                          00000005
SMT1PR14                          00000006
SMT1PR15                          00000007
SMT1PR16                          00000000
SMT1PR17                          00000001
SMT1PR18                          00000002
SMT1PR19                          00000003
SMT1PR2                           00000002
SMT1PR20                          00000004
SMT1PR21                          00000005
SMT1PR22                          00000006
SMT1PR23                          00000007
SMT1PR3                           00000003
SMT1PR4                           00000004
SMT1PR5                           00000005
SMT1PR6                           00000006
SMT1PR7                           00000007
SMT1PR8                           00000000
SMT1PR9                           00000001
SMT1PRAIE                         00000001
SMT1PRAIF                         00000001
SMT1PRH                           00000496
SMT1PRL                           00000495
SMT1PRU                           00000497
SMT1PS0                           00000000
SMT1PS1                           00000001
SMT1PWAIE                         00000002
SMT1PWAIF                         00000002
SMT1REPEAT                        00000006
SMT1RESET                         00000005
SMT1RST                           00000005
SMT1SIG                           0000049C
SMT1SIGPPS                        00000EAA
SMT1SPOL                          00000003
SMT1SSEL0                         00000000
SMT1SSEL1                         00000001
MPASM 5.73                   ENVGEN8Z209.ASM   5-7-2018  18:11:50         PAGE 94
DUAL ADSR

SYMBOL TABLE
  LABEL                             VALUE 

SMT1SSEL2                         00000002
SMT1SSEL3                         00000003
SMT1SSEL4                         00000004
SMT1STAT                          0000049A
SMT1STP                           00000005
SMT1TMR                           0000048C
SMT1TMR0                          00000000
SMT1TMR1                          00000001
SMT1TMR10                         00000002
SMT1TMR11                         00000003
SMT1TMR12                         00000004
SMT1TMR13                         00000005
SMT1TMR14                         00000006
SMT1TMR15                         00000007
SMT1TMR16                         00000000
SMT1TMR17                         00000001
SMT1TMR18                         00000002
SMT1TMR19                         00000003
SMT1TMR2                          00000002
SMT1TMR20                         00000004
SMT1TMR21                         00000005
SMT1TMR22                         00000006
SMT1TMR23                         00000007
SMT1TMR3                          00000003
SMT1TMR4                          00000004
SMT1TMR5                          00000005
SMT1TMR6                          00000006
SMT1TMR7                          00000007
SMT1TMR8                          00000000
SMT1TMR9                          00000001
SMT1TMRH                          0000048D
SMT1TMRL                          0000048C
SMT1TMRU                          0000048E
SMT1TS                            00000002
SMT1WIN                           0000049D
SMT1WINPPS                        00000EA9
SMT1WOL                           00000004
SMT1WS                            00000001
SMT1WSEL0                         00000000
SMT1WSEL1                         00000001
SMT1WSEL2                         00000002
SMT1WSEL3                         00000003
SMT1WSEL4                         00000004
SMT2AS                            00000000
SMT2CLK                           0000051B
SMT2CON0                          00000518
SMT2CON1                          00000519
SMT2CPOL                          00000002
SMT2CPR                           0000050F
SMT2CPR0                          00000000
SMT2CPR1                          00000001
SMT2CPR10                         00000002
SMT2CPR11                         00000003
MPASM 5.73                   ENVGEN8Z209.ASM   5-7-2018  18:11:50         PAGE 95
DUAL ADSR

SYMBOL TABLE
  LABEL                             VALUE 

SMT2CPR12                         00000004
SMT2CPR13                         00000005
SMT2CPR14                         00000006
SMT2CPR15                         00000007
SMT2CPR16                         00000000
SMT2CPR17                         00000001
SMT2CPR18                         00000002
SMT2CPR19                         00000003
SMT2CPR2                          00000002
SMT2CPR20                         00000004
SMT2CPR21                         00000005
SMT2CPR22                         00000006
SMT2CPR23                         00000007
SMT2CPR3                          00000003
SMT2CPR4                          00000004
SMT2CPR5                          00000005
SMT2CPR6                          00000006
SMT2CPR7                          00000007
SMT2CPR8                          00000000
SMT2CPR9                          00000001
SMT2CPRH                          00000510
SMT2CPRL                          0000050F
SMT2CPRU                          00000511
SMT2CPRUP                         00000007
SMT2CPW                           00000512
SMT2CPW0                          00000000
SMT2CPW1                          00000001
SMT2CPW10                         00000002
SMT2CPW11                         00000003
SMT2CPW12                         00000004
SMT2CPW13                         00000005
SMT2CPW14                         00000006
SMT2CPW15                         00000007
SMT2CPW16                         00000000
SMT2CPW17                         00000001
SMT2CPW18                         00000002
SMT2CPW19                         00000003
SMT2CPW2                          00000002
SMT2CPW20                         00000004
SMT2CPW21                         00000005
SMT2CPW22                         00000006
SMT2CPW23                         00000007
SMT2CPW3                          00000003
SMT2CPW4                          00000004
SMT2CPW5                          00000005
SMT2CPW6                          00000006
SMT2CPW7                          00000007
SMT2CPW8                          00000000
SMT2CPW9                          00000001
SMT2CPWH                          00000513
SMT2CPWL                          00000512
SMT2CPWU                          00000514
SMT2CPWUP                         00000006
MPASM 5.73                   ENVGEN8Z209.ASM   5-7-2018  18:11:50         PAGE 96
DUAL ADSR

SYMBOL TABLE
  LABEL                             VALUE 

SMT2CSEL0                         00000000
SMT2CSEL1                         00000001
SMT2CSEL2                         00000002
SMT2EN                            00000007
SMT2GO                            00000007
SMT2IE                            00000003
SMT2IF                            00000003
SMT2MD                            00000007
SMT2PR                            00000515
SMT2PR0                           00000000
SMT2PR1                           00000001
SMT2PR10                          00000002
SMT2PR11                          00000003
SMT2PR12                          00000004
SMT2PR13                          00000005
SMT2PR14                          00000006
SMT2PR15                          00000007
SMT2PR16                          00000000
SMT2PR17                          00000001
SMT2PR18                          00000002
SMT2PR19                          00000003
SMT2PR2                           00000002
SMT2PR20                          00000004
SMT2PR21                          00000005
SMT2PR22                          00000006
SMT2PR23                          00000007
SMT2PR3                           00000003
SMT2PR4                           00000004
SMT2PR5                           00000005
SMT2PR6                           00000006
SMT2PR7                           00000007
SMT2PR8                           00000000
SMT2PR9                           00000001
SMT2PRAIE                         00000004
SMT2PRAIF                         00000004
SMT2PRH                           00000516
SMT2PRL                           00000515
SMT2PRU                           00000517
SMT2PS0                           00000000
SMT2PS1                           00000001
SMT2PWAIE                         00000005
SMT2PWAIF                         00000005
SMT2REPEAT                        00000006
SMT2RESET                         00000005
SMT2RST                           00000005
SMT2SIG                           0000051C
SMT2SIGPPS                        00000EAC
SMT2SPOL                          00000003
SMT2SSEL0                         00000000
SMT2SSEL1                         00000001
SMT2SSEL2                         00000002
SMT2SSEL3                         00000003
SMT2SSEL4                         00000004
MPASM 5.73                   ENVGEN8Z209.ASM   5-7-2018  18:11:50         PAGE 97
DUAL ADSR

SYMBOL TABLE
  LABEL                             VALUE 

SMT2STAT                          0000051A
SMT2STP                           00000005
SMT2TMR                           0000050C
SMT2TMR0                          00000000
SMT2TMR1                          00000001
SMT2TMR10                         00000002
SMT2TMR11                         00000003
SMT2TMR12                         00000004
SMT2TMR13                         00000005
SMT2TMR14                         00000006
SMT2TMR15                         00000007
SMT2TMR16                         00000000
SMT2TMR17                         00000001
SMT2TMR18                         00000002
SMT2TMR19                         00000003
SMT2TMR2                          00000002
SMT2TMR20                         00000004
SMT2TMR21                         00000005
SMT2TMR22                         00000006
SMT2TMR23                         00000007
SMT2TMR3                          00000003
SMT2TMR4                          00000004
SMT2TMR5                          00000005
SMT2TMR6                          00000006
SMT2TMR7                          00000007
SMT2TMR8                          00000000
SMT2TMR9                          00000001
SMT2TMRH                          0000050D
SMT2TMRL                          0000050C
SMT2TMRU                          0000050E
SMT2TS                            00000002
SMT2WIN                           0000051D
SMT2WINPPS                        00000EAB
SMT2WOL                           00000004
SMT2WS                            00000001
SMT2WSEL0                         00000000
SMT2WSEL1                         00000001
SMT2WSEL2                         00000002
SMT2WSEL3                         00000003
SMT2WSEL4                         00000004
SMU1SIGPPS0                       00000000
SMU1SIGPPS1                       00000001
SMU1SIGPPS2                       00000002
SMU1SIGPPS3                       00000003
SMU1SIGPPS4                       00000004
SMU1WINPPS0                       00000000
SMU1WINPPS1                       00000001
SMU1WINPPS2                       00000002
SMU1WINPPS3                       00000003
SMU1WINPPS4                       00000004
SMU2SIGPPS0                       00000000
SMU2SIGPPS1                       00000001
SMU2SIGPPS2                       00000002
MPASM 5.73                   ENVGEN8Z209.ASM   5-7-2018  18:11:50         PAGE 98
DUAL ADSR

SYMBOL TABLE
  LABEL                             VALUE 

SMU2SIGPPS3                       00000003
SMU2SIGPPS4                       00000004
SMU2WINPPS0                       00000000
SMU2WINPPS1                       00000001
SMU2WINPPS2                       00000002
SMU2WINPPS3                       00000003
SMU2WINPPS4                       00000004
SOR                               00000003
SOSCEN                            00000003
SOSCPWR                           00000006
SP1BRG                            0000011B
SP1BRGH                           0000011C
SP1BRGL                           0000011B
SPBRG                             0000011B
SPBRG1                            0000011B
SPBRGH                            0000011C
SPBRGH1                           0000011C
SPBRGL                            0000011B
SPEN                              00000007
SPOL                              00000003
SREN                              00000005
SSEL0                             00000000
SSEL1                             00000001
SSEL2                             00000002
SSEL3                             00000003
SSEL4                             00000004
SSP1ADD                           0000018D
SSP1BUF                           0000018C
SSP1CLKPPS                        00000EC5
SSP1CLKPPS0                       00000000
SSP1CLKPPS1                       00000001
SSP1CLKPPS2                       00000002
SSP1CLKPPS3                       00000003
SSP1CLKPPS4                       00000004
SSP1CON1                          00000190
SSP1CON2                          00000191
SSP1CON3                          00000192
SSP1DATPPS                        00000EC6
SSP1DATPPS0                       00000000
SSP1DATPPS1                       00000001
SSP1DATPPS2                       00000002
SSP1DATPPS3                       00000003
SSP1DATPPS4                       00000004
SSP1IE                            00000000
SSP1IF                            00000000
SSP1MSK                           0000018E
SSP1SSPPS                         00000EC7
SSP1SSPPS0                        00000000
SSP1SSPPS1                        00000001
SSP1SSPPS2                        00000002
SSP1SSPPS3                        00000003
SSP1SSPPS4                        00000004
SSP1STAT                          0000018F
MPASM 5.73                   ENVGEN8Z209.ASM   5-7-2018  18:11:50         PAGE 99
DUAL ADSR

SYMBOL TABLE
  LABEL                             VALUE 

SSP2ADD                           00000197
SSP2BUF                           00000196
SSP2CLKPPS                        00000EC8
SSP2CLKPPS0                       00000000
SSP2CLKPPS1                       00000001
SSP2CLKPPS2                       00000002
SSP2CLKPPS3                       00000003
SSP2CLKPPS4                       00000004
SSP2CON1                          0000019A
SSP2CON2                          0000019B
SSP2CON3                          0000019C
SSP2DATPPS                        00000EC9
SSP2DATPPS0                       00000000
SSP2DATPPS1                       00000001
SSP2DATPPS2                       00000002
SSP2DATPPS3                       00000003
SSP2DATPPS4                       00000004
SSP2IE                            00000002
SSP2IF                            00000002
SSP2MSK                           00000198
SSP2SSPPS                         00000ECA
SSP2SSPPS0                        00000000
SSP2SSPPS1                        00000001
SSP2SSPPS2                        00000002
SSP2SSPPS3                        00000003
SSP2SSPPS4                        00000004
SSP2STAT                          00000199
SSPEN                             00000005
SSPM0                             00000000
SSPM1                             00000001
SSPM2                             00000002
SSPM3                             00000003
SSPOV                             00000006
STAGE                             0000002A
START_HI                          00000074
START_LO                          00000075
STATE                             00000002
STATES                            00000033
STATUS                            00000003
STATUS_SHAD                       00000FE4
STEPSIZE                          0x10
STKOVF                            00000007
STKPTR                            00000FED
STKUNF                            00000006
STP                               00000005
STRA                              00000000
STRB                              00000001
STRC                              00000002
STRD                              00000003
SUSTAIN_CV                        0000002D
SWDTEN                            00000000
SYNC_CM1CON0                      00000000
SYNC_CM2CON0                      00000000
MPASM 5.73                   ENVGEN8Z209.ASM   5-7-2018  18:11:50         PAGE 100
DUAL ADSR

SYMBOL TABLE
  LABEL                             VALUE 

SYNC_TX1STA                       00000004
SYNC_TXSTA                        00000004
SYNC_TXSTA1                       00000004
SYSCMD                            00000007
ScannedAllChannels                000001C4
SelectADCChannel                  000001C2
SelectStage                       00000076
SelectStageBranch                 00000078
SetEnvelopeMode                   00000216
SetLFOMode                        0000021D
SetLoopingEnvelopeMode            00000229
SkipPunch                         00000051
SkipSustain                       0000005D
StartEnvelope                     0000001B
Sustain                           000000B8
SustainCV                         000001ED
T016BIT                           00000004
T0ASYNC                           00000004
T0CKIPPS                          00000E91
T0CKIPPS0                         00000000
T0CKIPPS1                         00000001
T0CKIPPS2                         00000002
T0CKIPPS3                         00000003
T0CKPS0                           00000000
T0CKPS1                           00000001
T0CKPS2                           00000002
T0CKPS3                           00000003
T0CON0                            0000001E
T0CON1                            0000001F
T0CS0                             00000005
T0CS1                             00000006
T0CS2                             00000007
T0EN                              00000007
T0OUT                             00000005
T0OUTPS0                          00000000
T0OUTPS1                          00000001
T0OUTPS2                          00000002
T0OUTPS3                          00000003
T0PR0                             00000000
T0PR1                             00000001
T0PR2                             00000002
T0PR3                             00000003
T0PR4                             00000004
T0PR5                             00000005
T0PR6                             00000006
T0PR7                             00000007
T0PS0                             00000000
T0PS1                             00000001
T0PS2                             00000002
T0PS3                             00000003
T1CKIPPS                          00000E92
T1CKIPPS0                         00000000
T1CKIPPS1                         00000001
MPASM 5.73                   ENVGEN8Z209.ASM   5-7-2018  18:11:50         PAGE 101
DUAL ADSR

SYMBOL TABLE
  LABEL                             VALUE 

T1CKIPPS2                         00000002
T1CKIPPS3                         00000003
T1CKIPPS4                         00000004
T1CKPS0                           00000004
T1CKPS1                           00000005
T1CLK                             00000211
T1CON                             0000020E
T1CS0                             00000000
T1CS1                             00000001
T1CS2                             00000002
T1CS3                             00000003
T1GATE                            00000210
T1GCON                            0000020F
T1GE                              00000007
T1GGO                             00000003
T1GGO_NOT_DONE                    00000003
T1GPOL                            00000006
T1GPPS                            00000E93
T1GPPS0                           00000000
T1GPPS1                           00000001
T1GPPS2                           00000002
T1GPPS3                           00000003
T1GPPS4                           00000004
T1GSPM                            00000004
T1GSS0                            00000000
T1GSS1                            00000001
T1GSS2                            00000002
T1GSS3                            00000003
T1GSS4                            00000004
T1GTM                             00000005
T1GVAL                            00000002
T1RD16                            00000001
T2AINPPS                          00000E9C
T2AINPPS0                         00000000
T2AINPPS1                         00000001
T2AINPPS2                         00000002
T2AINPPS3                         00000003
T2AINPPS4                         00000004
T2CKPOL                           00000006
T2CKPS0                           00000004
T2CKPS1                           00000005
T2CKPS2                           00000006
T2CKSYNC                          00000005
T2CLK                             00000290
T2CLKCON                          00000290
T2CON                             0000028E
T2CS0                             00000000
T2CS1                             00000001
T2CS2                             00000002
T2CS3                             00000003
T2HLT                             0000028F
T2MODE0                           00000000
T2MODE1                           00000001
MPASM 5.73                   ENVGEN8Z209.ASM   5-7-2018  18:11:50         PAGE 102
DUAL ADSR

SYMBOL TABLE
  LABEL                             VALUE 

T2MODE2                           00000002
T2MODE3                           00000003
T2MODE4                           00000004
T2ON                              00000007
T2OUTPS0                          00000000
T2OUTPS1                          00000001
T2OUTPS2                          00000002
T2OUTPS3                          00000003
T2PR                              0000028D
T2PSYNC                           00000007
T2RSEL0                           00000000
T2RSEL1                           00000001
T2RSEL2                           00000002
T2RSEL3                           00000003
T2RSEL4                           00000004
T2RST                             00000291
T2TMR                             0000028C
T3CKIPPS                          00000E94
T3CKIPPS0                         00000000
T3CKIPPS1                         00000001
T3CKIPPS2                         00000002
T3CKIPPS3                         00000003
T3CKIPPS4                         00000004
T3CKPS0                           00000004
T3CKPS1                           00000005
T3CLK                             00000217
T3CON                             00000214
T3CS0                             00000000
T3CS1                             00000001
T3CS2                             00000002
T3CS3                             00000003
T3GATE                            00000216
T3GCON                            00000215
T3GE                              00000007
T3GGO                             00000003
T3GGO_NOT_DONE                    00000003
T3GPOL                            00000006
T3GPPS                            00000E95
T3GPPS0                           00000000
T3GPPS1                           00000001
T3GPPS2                           00000002
T3GPPS3                           00000003
T3GPPS4                           00000004
T3GSPM                            00000004
T3GSS0                            00000000
T3GSS1                            00000001
T3GSS2                            00000002
T3GSS3                            00000003
T3GSS4                            00000004
T3GTM                             00000005
T3GVAL                            00000002
T3RD16                            00000001
T4AINPPS                          00000E9D
MPASM 5.73                   ENVGEN8Z209.ASM   5-7-2018  18:11:50         PAGE 103
DUAL ADSR

SYMBOL TABLE
  LABEL                             VALUE 

T4AINPPS0                         00000000
T4AINPPS1                         00000001
T4AINPPS2                         00000002
T4AINPPS3                         00000003
T4AINPPS4                         00000004
T4CKPOL                           00000006
T4CKPS0                           00000004
T4CKPS1                           00000005
T4CKPS2                           00000006
T4CKSYNC                          00000005
T4CLK                             00000296
T4CLKCON                          00000296
T4CON                             00000294
T4CS0                             00000000
T4CS1                             00000001
T4CS2                             00000002
T4CS3                             00000003
T4HLT                             00000295
T4MODE0                           00000000
T4MODE1                           00000001
T4MODE2                           00000002
T4MODE3                           00000003
T4MODE4                           00000004
T4ON                              00000007
T4OUTPS0                          00000000
T4OUTPS1                          00000001
T4OUTPS2                          00000002
T4OUTPS3                          00000003
T4PR                              00000293
T4PSYNC                           00000007
T4RSEL0                           00000000
T4RSEL1                           00000001
T4RSEL2                           00000002
T4RSEL3                           00000003
T4RSEL4                           00000004
T4RST                             00000297
T4TMR                             00000292
T5CKIPPS                          00000E96
T5CKIPPS0                         00000000
T5CKIPPS1                         00000001
T5CKIPPS2                         00000002
T5CKIPPS3                         00000003
T5CKIPPS4                         00000004
T5CKPS0                           00000004
T5CKPS1                           00000005
T5CLK                             0000021D
T5CON                             0000021A
T5CS0                             00000000
T5CS1                             00000001
T5CS2                             00000002
T5CS3                             00000003
T5GATE                            0000021C
T5GCON                            0000021B
MPASM 5.73                   ENVGEN8Z209.ASM   5-7-2018  18:11:50         PAGE 104
DUAL ADSR

SYMBOL TABLE
  LABEL                             VALUE 

T5GE                              00000007
T5GGO                             00000003
T5GGO_NOT_DONE                    00000003
T5GPOL                            00000006
T5GPPS                            00000E97
T5GPPS0                           00000000
T5GPPS1                           00000001
T5GPPS2                           00000002
T5GPPS3                           00000003
T5GPPS4                           00000004
T5GSPM                            00000004
T5GSS0                            00000000
T5GSS1                            00000001
T5GSS2                            00000002
T5GSS3                            00000003
T5GSS4                            00000004
T5GTM                             00000005
T5GVAL                            00000002
T5RD16                            00000001
T6AINPPS                          00000E9E
T6AINPPS0                         00000000
T6AINPPS1                         00000001
T6AINPPS2                         00000002
T6AINPPS3                         00000003
T6AINPPS4                         00000004
T6CKPOL                           00000006
T6CKPS0                           00000004
T6CKPS1                           00000005
T6CKPS2                           00000006
T6CKSYNC                          00000005
T6CLK                             0000029C
T6CLKCON                          0000029C
T6CON                             0000029A
T6CS0                             00000000
T6CS1                             00000001
T6CS2                             00000002
T6CS3                             00000003
T6HLT                             0000029B
T6MODE0                           00000000
T6MODE1                           00000001
T6MODE2                           00000002
T6MODE3                           00000003
T6MODE4                           00000004
T6ON                              00000007
T6OUTPS0                          00000000
T6OUTPS1                          00000001
T6OUTPS2                          00000002
T6OUTPS3                          00000003
T6PR                              00000299
T6PSYNC                           00000007
T6RSEL0                           00000000
T6RSEL1                           00000001
T6RSEL2                           00000002
MPASM 5.73                   ENVGEN8Z209.ASM   5-7-2018  18:11:50         PAGE 105
DUAL ADSR

SYMBOL TABLE
  LABEL                             VALUE 

T6RSEL3                           00000003
T6RSEL4                           00000004
T6RST                             0000029D
T6TMR                             00000298
TEMP                              00000070
TIME_CV                           0000002F
TMR0                              0000001C
TMR0H                             0000001D
TMR0H0                            00000000
TMR0H1                            00000001
TMR0H2                            00000002
TMR0H3                            00000003
TMR0H4                            00000004
TMR0H5                            00000005
TMR0H6                            00000006
TMR0H7                            00000007
TMR0IE                            00000005
TMR0IF                            00000005
TMR0L                             0000001C
TMR0L0                            00000000
TMR0L1                            00000001
TMR0L2                            00000002
TMR0L3                            00000003
TMR0L4                            00000004
TMR0L5                            00000005
TMR0L6                            00000006
TMR0L7                            00000007
TMR0MD                            00000000
TMR1                              0000020C
TMR10_SMT1TMRH                    00000002
TMR10_SMT2TMRH                    00000002
TMR10_TMR1L                       00000000
TMR110                            00000002
TMR111                            00000003
TMR112                            00000004
TMR113                            00000005
TMR114                            00000006
TMR115                            00000007
TMR11_SMT1TMRH                    00000003
TMR11_SMT2TMRH                    00000003
TMR11_TMR1L                       00000001
TMR12_SMT1TMRH                    00000004
TMR12_SMT2TMRH                    00000004
TMR12_TMR1L                       00000002
TMR13_SMT1TMRH                    00000005
TMR13_SMT2TMRH                    00000005
TMR13_TMR1L                       00000003
TMR14_SMT1TMRH                    00000006
TMR14_SMT2TMRH                    00000006
TMR14_TMR1L                       00000004
TMR15_SMT1TMRH                    00000007
TMR15_SMT2TMRH                    00000007
TMR15_TMR1L                       00000005
MPASM 5.73                   ENVGEN8Z209.ASM   5-7-2018  18:11:50         PAGE 106
DUAL ADSR

SYMBOL TABLE
  LABEL                             VALUE 

TMR16_SMT1TMRU                    00000000
TMR16_SMT2TMRU                    00000000
TMR16_TMR1L                       00000006
TMR17_SMT1TMRU                    00000001
TMR17_SMT2TMRU                    00000001
TMR17_TMR1L                       00000007
TMR18_SMT1TMRU                    00000002
TMR18_SMT2TMRU                    00000002
TMR18_TMR1H                       00000000
TMR19_SMT1TMRU                    00000003
TMR19_SMT2TMRU                    00000003
TMR19_TMR1H                       00000001
TMR1CLK                           00000211
TMR1GATE                          00000210
TMR1GIE                           00000000
TMR1GIF                           00000000
TMR1H                             0000020D
TMR1H0                            00000000
TMR1H1                            00000001
TMR1H2                            00000002
TMR1H3                            00000003
TMR1H4                            00000004
TMR1H5                            00000005
TMR1H6                            00000006
TMR1H7                            00000007
TMR1IE                            00000000
TMR1IF                            00000000
TMR1L                             0000020C
TMR1L0                            00000000
TMR1L1                            00000001
TMR1L2                            00000002
TMR1L3                            00000003
TMR1L4                            00000004
TMR1L5                            00000005
TMR1L6                            00000006
TMR1L7                            00000007
TMR1MD                            00000001
TMR1ON                            00000000
TMR2                              0000028C
TMR20                             00000004
TMR21                             00000005
TMR22                             00000006
TMR23                             00000007
TMR2IE                            00000001
TMR2IF                            00000001
TMR2MD                            00000002
TMR2ON                            00000007
TMR3                              00000212
TMR30                             00000000
TMR31                             00000001
TMR310                            00000002
TMR311                            00000003
TMR312                            00000004
MPASM 5.73                   ENVGEN8Z209.ASM   5-7-2018  18:11:50         PAGE 107
DUAL ADSR

SYMBOL TABLE
  LABEL                             VALUE 

TMR313                            00000005
TMR314                            00000006
TMR315                            00000007
TMR32                             00000002
TMR33                             00000003
TMR34                             00000004
TMR35                             00000005
TMR36                             00000006
TMR37                             00000007
TMR38                             00000000
TMR39                             00000001
TMR3CLK                           00000217
TMR3GATE                          00000216
TMR3GIE                           00000001
TMR3GIF                           00000001
TMR3H                             00000213
TMR3H0                            00000000
TMR3H1                            00000001
TMR3H2                            00000002
TMR3H3                            00000003
TMR3H4                            00000004
TMR3H5                            00000005
TMR3H6                            00000006
TMR3H7                            00000007
TMR3IE                            00000002
TMR3IF                            00000002
TMR3L                             00000212
TMR3L0                            00000000
TMR3L1                            00000001
TMR3L2                            00000002
TMR3L3                            00000003
TMR3L4                            00000004
TMR3L5                            00000005
TMR3L6                            00000006
TMR3L7                            00000007
TMR3MD                            00000003
TMR3ON                            00000000
TMR4                              00000292
TMR4IE                            00000003
TMR4IF                            00000003
TMR4MD                            00000004
TMR4ON                            00000007
TMR5                              00000218
TMR50                             00000000
TMR51                             00000001
TMR510                            00000002
TMR511                            00000003
TMR512                            00000004
TMR513                            00000005
TMR514                            00000006
TMR515                            00000007
TMR52                             00000002
TMR53                             00000003
MPASM 5.73                   ENVGEN8Z209.ASM   5-7-2018  18:11:50         PAGE 108
DUAL ADSR

SYMBOL TABLE
  LABEL                             VALUE 

TMR54                             00000004
TMR55                             00000005
TMR56                             00000006
TMR57                             00000007
TMR58                             00000000
TMR59                             00000001
TMR5CLK                           0000021D
TMR5GATE                          0000021C
TMR5GIE                           00000002
TMR5GIF                           00000002
TMR5H                             00000219
TMR5H0                            00000000
TMR5H1                            00000001
TMR5H2                            00000002
TMR5H3                            00000003
TMR5H4                            00000004
TMR5H5                            00000005
TMR5H6                            00000006
TMR5H7                            00000007
TMR5IE                            00000004
TMR5IF                            00000004
TMR5L                             00000218
TMR5L0                            00000000
TMR5L1                            00000001
TMR5L2                            00000002
TMR5L3                            00000003
TMR5L4                            00000004
TMR5L5                            00000005
TMR5L6                            00000006
TMR5L7                            00000007
TMR5MD                            00000005
TMR5ON                            00000000
TMR6                              00000298
TMR6IE                            00000005
TMR6IF                            00000005
TMR6MD                            00000006
TMR6ON                            00000007
TMR7                              00000007
TMR8                              00000000
TMR9                              00000001
TOSH                              00000FEF
TOSL                              00000FEE
TRIGGER                           STATES, 0
TRIG_CHANGED                      CHANGES, 0
TRISA                             00000011
TRISA0                            00000000
TRISA1                            00000001
TRISA2                            00000002
TRISA3                            00000003
TRISA4                            00000004
TRISA5                            00000005
TRISA6                            00000006
TRISA7                            00000007
MPASM 5.73                   ENVGEN8Z209.ASM   5-7-2018  18:11:50         PAGE 109
DUAL ADSR

SYMBOL TABLE
  LABEL                             VALUE 

TRISB                             00000012
TRISB0                            00000000
TRISB1                            00000001
TRISB2                            00000002
TRISB3                            00000003
TRISB4                            00000004
TRISB5                            00000005
TRISB6                            00000006
TRISB7                            00000007
TRISC                             00000013
TRISC0                            00000000
TRISC1                            00000001
TRISC2                            00000002
TRISC3                            00000003
TRISC4                            00000004
TRISC5                            00000005
TRISC6                            00000006
TRISC7                            00000007
TRMT                              00000001
TS                                00000002
TSEL0                             00000000
TSEL1                             00000001
TSEL2                             00000002
TSEL3                             00000003
TSEN                              00000005
TSRNG                             00000004
TX1REG                            0000011A
TX1STA                            0000011E
TX9                               00000006
TX9D                              00000000
TXEN                              00000005
TXIE                              00000004
TXIF                              00000004
TXPPS                             00000ECC
TXPPS0                            00000000
TXPPS1                            00000001
TXPPS2                            00000002
TXPPS3                            00000003
TXPPS4                            00000004
TXREG                             0000011A
TXREG1                            0000011A
TXSTA                             0000011E
TXSTA1                            0000011E
TestEnvelopeMode                  00000212
TestGate                          00000025
TestLFOMode                       00000219
TestLooping                       00000057
TestLoopingEnd                    00000063
TestPunch                         0000004F
TestTrigger                       00000017
TimeCV                            00000204
UA                                00000001
UART1MD                           00000006
MPASM 5.73                   ENVGEN8Z209.ASM   5-7-2018  18:11:50         PAGE 110
DUAL ADSR

SYMBOL TABLE
  LABEL                             VALUE 

USEACCESSBANK                     0x00
USEBSR                            0x01
USE_ADSR                          PORTA, 5
USE_EXPO                          PORTA, 3
VREGCON                           00000812
VREGPM                            00000001
VREGPM0                           00000000
VREGPM1                           00000001
W                                 00000000
WCOL                              00000007
WDTCON0                           0000080C
WDTCON1                           0000080D
WDTCS0                            00000004
WDTCS1                            00000005
WDTCS2                            00000006
WDTPS0                            00000001
WDTPS1                            00000002
WDTPS2                            00000003
WDTPS3                            00000004
WDTPS4                            00000005
WDTPSCNT0                         00000000
WDTPSCNT1                         00000001
WDTPSCNT10                        00000002
WDTPSCNT11                        00000003
WDTPSCNT12                        00000004
WDTPSCNT13                        00000005
WDTPSCNT14                        00000006
WDTPSCNT15                        00000007
WDTPSCNT16                        00000000
WDTPSCNT17                        00000001
WDTPSCNT2                         00000002
WDTPSCNT3                         00000003
WDTPSCNT4                         00000004
WDTPSCNT5                         00000005
WDTPSCNT6                         00000006
WDTPSCNT7                         00000007
WDTPSCNT8                         00000000
WDTPSCNT9                         00000001
WDTPSH                            0000080F
WDTPSL                            0000080E
WDTSEN                            00000000
WDTSTATE                          00000002
WDTTMR                            00000810
WDTTMR0                           00000003
WDTTMR1                           00000004
WDTTMR2                           00000005
WDTTMR3                           00000006
WDTWINDOW0                        00000000
WDTWINDOW1                        00000001
WDTWINDOW2                        00000002
WINDOW0                           00000000
WINDOW1                           00000001
WINDOW2                           00000002
MPASM 5.73                   ENVGEN8Z209.ASM   5-7-2018  18:11:50         PAGE 111
DUAL ADSR

SYMBOL TABLE
  LABEL                             VALUE 

WPOL                              00000004
WPUA                              00000F39
WPUA0                             00000000
WPUA1                             00000001
WPUA2                             00000002
WPUA3                             00000003
WPUA4                             00000004
WPUA5                             00000005
WPUA6                             00000006
WPUA7                             00000007
WPUB                              00000F44
WPUB0                             00000000
WPUB1                             00000001
WPUB2                             00000002
WPUB3                             00000003
WPUB4                             00000004
WPUB5                             00000005
WPUB6                             00000006
WPUB7                             00000007
WPUC                              00000F4F
WPUC0                             00000000
WPUC1                             00000001
WPUC2                             00000002
WPUC3                             00000003
WPUC4                             00000004
WPUC5                             00000005
WPUC6                             00000006
WPUC7                             00000007
WPUE                              00000F65
WPUE3                             00000003
WR                                00000001
WREG                              00000009
WREG_SHAD                         00000FE5
WREN                              00000002
WRERR                             00000003
WS                                00000001
WSEL0                             00000000
WSEL1                             00000001
WSEL2                             00000002
WSEL3                             00000003
WSEL4                             00000004
WUE                               00000001
Wait                              0000007E
WriteByteHiWait                   000000E5
WriteByteLoWait                   000000EA
X1                                00000001
X10                               00000002
X11                               00000003
X12                               00000004
X13                               00000005
X14                               00000006
X15                               00000007
X2                                00000002
MPASM 5.73                   ENVGEN8Z209.ASM   5-7-2018  18:11:50         PAGE 112
DUAL ADSR

SYMBOL TABLE
  LABEL                             VALUE 

X3                                00000003
X4                                00000004
X5                                00000005
X6                                00000006
X7                                00000007
X8                                00000000
X9                                00000001
Z                                 00000002
ZCD1CON                           0000091F
ZCD1EN                            00000007
ZCD1INTN                          00000000
ZCD1INTP                          00000001
ZCD1OUT                           00000005
ZCD1POL                           00000004
ZCDCON                            0000091F
ZCDEN                             00000007
ZCDIE                             00000006
ZCDIF                             00000006
ZCDINTN                           00000000
ZCDINTP                           00000001
ZCDMD                             00000000
ZCDOUT                            00000005
ZCDPOL                            00000004
ZERO                              STATUS,Z
Z_SHAD                            00000002
_.org_1_017A                      0000017A
_.org_1_017D                      0000017D
_BOREN_NSLEEP                     00003FBF
_BOREN_OFF                        00003F3F
_BOREN_ON                         00003FFF
_BOREN_SBOREN                     00003F7F
_BORV_HI                          00003DFF
_BORV_LO                          00003FFF
_CLKOUTEN_OFF                     00003FFF
_CLKOUTEN_ON                      00003EFF
_CONFIG1                          00008007
_CONFIG2                          00008008
_CONFIG3                          00008009
_CONFIG4                          0000800A
_CONFIG5                          0000800B
_CPD_OFF                          00003FFF
_CPD_ON                           00003FFD
_CP_OFF                           00003FFF
_CP_ON                            00003FFE
_CSWEN_OFF                        000037FF
_CSWEN_ON                         00003FFF
_DEBUG_OFF                        00003FFF
_DEBUG_ON                         00001FFF
_DEVID1                           00008006
_FCMEN_OFF                        00001FFF
_FCMEN_ON                         00003FFF
_FEXTOSC_ECH                      00003FFF
_FEXTOSC_ECL                      00003FFD
MPASM 5.73                   ENVGEN8Z209.ASM   5-7-2018  18:11:50         PAGE 113
DUAL ADSR

SYMBOL TABLE
  LABEL                             VALUE 

_FEXTOSC_ECM                      00003FFE
_FEXTOSC_HS                       00003FFA
_FEXTOSC_LP                       00003FF8
_FEXTOSC_OFF                      00003FFC
_FEXTOSC_Reserved                 00003FFB
_FEXTOSC_XT                       00003FF9
_IDLOC0                           00008000
_IDLOC1                           00008001
_IDLOC2                           00008002
_IDLOC3                           00008003
_LPBOREN_OFF                      00003FFF
_LPBOREN_ON                       00003FDF
_LVP_OFF                          00001FFF
_LVP_ON                           00003FFF
_MCLRE_OFF                        00003FFE
_MCLRE_ON                         00003FFF
_PPS1WAY_OFF                      000037FF
_PPS1WAY_ON                       00003FFF
_PWRTE_OFF                        00003FFF
_PWRTE_ON                         00003FFD
_RSTOSC_EXT1X                     00003FFF
_RSTOSC_EXT4X                     00003FAF
_RSTOSC_HFINT1                    00003FEF
_RSTOSC_HFINT32                   00003F8F
_RSTOSC_HFINTPLL                  00003F9F
_RSTOSC_LFINT                     00003FDF
_RSTOSC_Reserved                  00003FBF
_RSTOSC_SOSC                      00003FCF
_SCANE_available                  00003FFF
_SCANE_not_available              00002FFF
_STVREN_OFF                       00002FFF
_STVREN_ON                        00003FFF
_WDTCCS_HFINTOSC                  00000FFF
_WDTCCS_LFINTOSC                  000007FF
_WDTCCS_SC                        00003FFF
_WDTCPS_WDTCPS_0                  00003FE0
_WDTCPS_WDTCPS_1                  00003FE1
_WDTCPS_WDTCPS_10                 00003FEA
_WDTCPS_WDTCPS_11                 00003FEB
_WDTCPS_WDTCPS_12                 00003FEC
_WDTCPS_WDTCPS_13                 00003FED
_WDTCPS_WDTCPS_14                 00003FEE
_WDTCPS_WDTCPS_15                 00003FEF
_WDTCPS_WDTCPS_16                 00003FF0
_WDTCPS_WDTCPS_17                 00003FF1
_WDTCPS_WDTCPS_18                 00003FF2
_WDTCPS_WDTCPS_19                 00003FF3
_WDTCPS_WDTCPS_2                  00003FE2
_WDTCPS_WDTCPS_20                 00003FF4
_WDTCPS_WDTCPS_21                 00003FF5
_WDTCPS_WDTCPS_22                 00003FF6
_WDTCPS_WDTCPS_23                 00003FF7
_WDTCPS_WDTCPS_24                 00003FF8
MPASM 5.73                   ENVGEN8Z209.ASM   5-7-2018  18:11:50         PAGE 114
DUAL ADSR

SYMBOL TABLE
  LABEL                             VALUE 

_WDTCPS_WDTCPS_25                 00003FF9
_WDTCPS_WDTCPS_26                 00003FFA
_WDTCPS_WDTCPS_27                 00003FFB
_WDTCPS_WDTCPS_28                 00003FFC
_WDTCPS_WDTCPS_29                 00003FFD
_WDTCPS_WDTCPS_3                  00003FE3
_WDTCPS_WDTCPS_30                 00003FFE
_WDTCPS_WDTCPS_31                 00003FFF
_WDTCPS_WDTCPS_4                  00003FE4
_WDTCPS_WDTCPS_5                  00003FE5
_WDTCPS_WDTCPS_6                  00003FE6
_WDTCPS_WDTCPS_7                  00003FE7
_WDTCPS_WDTCPS_8                  00003FE8
_WDTCPS_WDTCPS_9                  00003FE9
_WDTCWS_WDTCWS_0                  000038FF
_WDTCWS_WDTCWS_1                  000039FF
_WDTCWS_WDTCWS_2                  00003AFF
_WDTCWS_WDTCWS_3                  00003BFF
_WDTCWS_WDTCWS_4                  00003CFF
_WDTCWS_WDTCWS_5                  00003DFF
_WDTCWS_WDTCWS_6                  00003EFF
_WDTCWS_WDTCWS_7                  00003FFF
_WDTE_NSLEEP                      00003FDF
_WDTE_OFF                         00003F9F
_WDTE_ON                          00003FFF
_WDTE_SWDTEN                      00003FBF
_WRT_OFF                          00003FFF
_WRT_ON                           00003FFC
_WRT_WRT_lower                    00003FFD
_WRT_WRT_upper                    00003FFE
_ZCD_OFF                          00003FFF
_ZCD_ON                           00003BFF
__16F18855                        00000001

Errors   :     0
Warnings :     0 reported,     0 suppressed
Messages :     1 reported,    53 suppressed

